(dp0
(S'J'
p1
S'+'
p2
tp3
I-100
s(S'S'
p4
S'W'
p5
tp6
I0
s(S'V'
p7
S'0'
p8
tp9
I0
s(g4
S'N'
p10
tp11
I0
s(g8
S'R'
p12
tp13
I0
s(g8
g1
tp14
I0
s(S'H'
p15
g5
tp16
I0
s(S'X'
p17
S'M'
p18
tp19
I0
s(g5
g12
tp20
I0
s(g8
g8
tp21
I0
s(S'T'
p22
g12
tp23
I0
s(g7
g18
tp24
I-10
s(g10
g12
tp25
I0
s(S'K'
p26
g4
tp27
I0
s(g12
g1
tp28
I0
s(g2
g15
tp29
I-100
s(g12
g12
tp30
I10
s(g7
S'_'
p31
tp32
I-100000
s(g7
S'1'
p33
tp34
I-100000
s(g8
g26
tp35
I0
s(g33
g31
tp36
I1
s(g31
g15
tp37
I-100000
s(g33
g7
tp38
I-100000
s(g17
g15
tp39
I0
s(g12
g17
tp40
I0
s(g18
S'P'
p41
tp42
I0
s(g7
g10
tp43
I-10
s(g10
g4
tp44
I0
s(g18
g26
tp45
I0
s(g12
g26
tp46
I0
s(g26
g5
tp47
I0
s(g7
g17
tp48
I0
s(g17
g26
tp49
I0
s(g41
g12
tp50
I0
s(g8
g15
tp51
I0
s(g41
g26
tp52
I0
s(g5
g41
tp53
I0
s(g17
g10
tp54
I0
s(g17
g17
tp55
I0
s(g2
g17
tp56
I-5
s(g15
g26
tp57
I0
s(g4
g33
tp58
I-100000
s(g1
g22
tp59
I0
s(g26
g7
tp60
I-10
s(g31
g17
tp61
I0
s(g33
g12
tp62
I-100000
s(g17
g41
tp63
I0
s(g33
g8
tp64
I0
s(g22
g10
tp65
I0
s(g31
g10
tp66
I-100000
s(g33
g2
tp67
I-100
s(g33
g5
tp68
I-100000
s(g33
g15
tp69
I-100000
s(g5
g5
tp70
I10
s(g18
g12
tp71
I0
s(g7
g15
tp72
I-10
s(g22
g5
tp73
I0
s(g31
g2
tp74
I-100
s(g12
g18
tp75
I0
s(g8
g17
tp76
I0
s(g4
g4
tp77
I10
s(g15
g12
tp78
I0
s(g4
g1
tp79
I0
s(g41
g41
tp80
I10
s(g12
g31
tp81
I-100000
s(g8
g10
tp82
I0
s(g17
g2
tp83
I-5
s(g5
g7
tp84
I-10
s(g17
g8
tp85
I0
s(g31
g12
tp86
I-100000
s(g5
g33
tp87
I-100000
s(g31
g5
tp88
I-100000
s(g1
g7
tp89
I-10
s(g26
g22
tp90
I0
s(g1
g8
tp91
I0
s(g18
g8
tp92
I0
s(g33
g17
tp93
I0
s(g18
g2
tp94
I-100
s(g2
g5
tp95
I-100
s(g33
g4
tp96
I-100000
s(g10
g18
tp97
I0
s(g33
g1
tp98
I-100000
s(g31
g4
tp99
I-100000
s(g7
g1
tp100
I-10
s(g10
g31
tp101
I-100000
s(g2
g26
tp102
I-100
s(g1
g5
tp103
I0
s(g1
g12
tp104
I0
s(g15
g33
tp105
I-100000
s(g7
g22
tp106
I-10
s(g15
g41
tp107
I0
s(g4
g15
tp108
I0
s(g41
g7
tp109
I-10
s(g2
g7
tp110
I-100
s(g41
g33
tp111
I-100000
s(g17
g5
tp112
I0
s(g10
g10
tp113
I10
s(g5
g22
tp114
I0
s(g12
g41
tp115
I0
s(g2
g2
tp116
I0
s(g7
g26
tp117
I-10
s(g10
g17
tp118
I0
s(g41
g17
tp119
I0
s(g8
g31
tp120
I0
s(g1
g15
tp121
I0
s(g26
g12
tp122
I0
s(g12
g4
tp123
I0
s(g31
g26
tp124
I-100000
s(g22
g2
tp125
I-100
s(g8
g18
tp126
I0
s(g22
g1
tp127
I0
s(g22
g8
tp128
I0
s(g22
g4
tp129
I0
s(g18
g5
tp130
I0
s(g1
g33
tp131
I-100000
s(g22
g17
tp132
I0
s(g18
g10
tp133
I0
s(g4
g17
tp134
I0
s(g2
g33
tp135
I-100
s(g41
g31
tp136
I-100000
s(g7
g7
tp137
I5
s(g10
g2
tp138
I-100
s(g15
g7
tp139
I-10
s(g41
g22
tp140
I0
s(g2
g22
tp141
I-100
s(g15
g31
tp142
I-100000
s(g41
g18
tp143
I0
s(g10
g15
tp144
I0
s(g1
g17
tp145
I0
s(g15
g18
tp146
I0
s(g4
g2
tp147
I-100
s(g17
g12
tp148
I0
s(g1
g1
tp149
I10
s(g26
g41
tp150
I0
s(g7
g5
tp151
I-10
s(g2
g4
tp152
I-100
s(g26
g10
tp153
I0
s(g22
g15
tp154
I0
s(g31
g8
tp155
I0
s(g31
g31
tp156
I2
s(g33
g10
tp157
I-100000
s(g12
g2
tp158
I-100
s(g4
g31
tp159
I-100000
s(g18
g15
tp160
I0
s(g22
g22
tp161
I10
s(g4
g7
tp162
I-10
s(g1
g26
tp163
I0
s(g26
g31
tp164
I-100000
s(g4
g18
tp165
I0
s(g7
g41
tp166
I-10
s(g15
g22
tp167
I0
s(g41
g1
tp168
I0
s(g2
g12
tp169
I-100
s(g26
g18
tp170
I0
s(g15
g2
tp171
I-100
s(g10
g1
tp172
I0
s(g15
g1
tp173
I0
s(g12
g10
tp174
I0
s(g5
g26
tp175
I0
s(g12
g22
tp176
I0
s(g8
g4
tp177
I0
s(g33
g33
tp178
I2
s(g26
g33
tp179
I-100000
s(g22
g7
tp180
I-10
s(g18
g17
tp181
I0
s(g10
g26
tp182
I0
s(g22
g31
tp183
I-100000
s(g18
g4
tp184
I0
s(g12
g15
tp185
I0
s(g18
g1
tp186
I0
s(g5
g1
tp187
I0
s(g4
g22
tp188
I0
s(g1
g18
tp189
I0
s(g1
g4
tp190
I0
s(g4
g26
tp191
I0
s(g41
g4
tp192
I0
s(g7
g12
tp193
I-10
s(g5
g17
tp194
I0
s(g41
g15
tp195
I0
s(g26
g8
tp196
I0
s(g26
g26
tp197
I10
s(g41
g2
tp198
I-100
s(g10
g22
tp199
I0
s(g15
g15
tp200
I10
s(g4
g8
tp201
I0
s(g2
g10
tp202
I-100
s(g31
g41
tp203
I-100000
s(g2
g41
tp204
I-100
s(g18
g33
tp205
I-100000
s(g1
g10
tp206
I0
s(g7
g4
tp207
I-10
s(g5
g31
tp208
I-100000
s(g33
g41
tp209
I-100000
s(g31
g18
tp210
I-100000
s(g2
g31
tp211
I-100
s(g26
g1
tp212
I0
s(g33
g26
tp213
I-100000
s(g18
g18
tp214
I10
s(g2
g18
tp215
I-100
s(g5
g15
tp216
I0
s(g17
g1
tp217
I0
s(g4
g12
tp218
I0
s(g15
g8
tp219
I0
s(g12
g5
tp220
I0
s(g8
g7
tp221
I0
s(g15
g4
tp222
I0
s(g5
g2
tp223
I-100
s(g10
g33
tp224
I-100000
s(g15
g17
tp225
I0
s(g41
g10
tp226
I0
s(g17
g33
tp227
I0
s(g17
g31
tp228
I0
s(g10
g7
tp229
I-10
s(g7
g2
tp230
I-100
s(g15
g10
tp231
I0
s(g12
g8
tp232
I0
s(g31
g7
tp233
I-100000
s(g31
g33
tp234
I1
s(g41
g8
tp235
I0
s(g17
g4
tp236
I0
s(g10
g8
tp237
I0
s(g8
g5
tp238
I0
s(g33
g22
tp239
I-100000
s(g22
g18
tp240
I0
s(g17
g7
tp241
I0
s(g12
g7
tp242
I-10
s(g26
g15
tp243
I0
s(g33
g18
tp244
I-100000
s(g18
g22
tp245
I0
s(g10
g5
tp246
I0
s(g1
g31
tp247
I-100000
s(g26
g2
tp248
I-100
s(g12
g33
tp249
I-100000
s(g5
g10
tp250
I0
s(g4
g41
tp251
I0
s(g8
g22
tp252
I0
s(g41
g5
tp253
I0
s(g8
g41
tp254
I0
s(g17
g22
tp255
I0
s(g8
g33
tp256
I0
s(g10
g41
tp257
I0
s(g1
g41
tp258
I0
s(g2
g1
tp259
I-100
s(g31
g22
tp260
I-100000
s(g5
g18
tp261
I0
s(g26
g17
tp262
I0
s(g31
g1
tp263
I-100000
s(g5
g4
tp264
I0
s(g22
g26
tp265
I0
s(g18
g31
tp266
I-100000
s(g22
g33
tp267
I-100000
s(g22
g41
tp268
I0
s(g18
g7
tp269
I-10
s(g5
g8
tp270
I0
s.