(dp0
V+
p1
S'+'
p2
sV1
p3
S'1'
p4
sV3
p5
S'I'
p6
sV2
p7
S'2'
p8
sV5
p9
S'5'
p10
sV4
p11
S'4'
p12
sV7
p13
S'7'
p14
sV6
p15
S'6'
p16
sV8
p17
S'8'
p18
sVC
p19
S'C'
p20
sVE
p21
S'E'
p22
sVH
p23
S'H'
p24
sVL
p25
S'L'
p26
sVN
p27
S'N'
p28
sVS
p29
S'S'
p30
sVX
p31
S'G'
p32
sVZ
p33
S'Z'
p34
sV_
p35
S'_'
p36
sVa
p37
S'a'
p38
sVc
p39
S'c'
p40
sVb
p41
S'b'
p42
sVe
p43
S'e'
p44
sVd
p45
S'd'
p46
sVg
p47
S'g'
p48
sVf
p49
S'f'
p50
sVi
p51
S'i'
p52
sVh
p53
S'h'
p54
sVk
p55
S'k'
p56
sVj
p57
S'j'
p58
sVm
p59
S'm'
p60
sVl
p61
S'l'
p62
sVo
p63
S'o'
p64
sVn
p65
S'n'
p66
sVq
p67
S'q'
p68
sVp
p69
S'p'
p70
sVs
p71
S's'
p72
sVr
p73
S'r'
p74
sVu
p75
S'u'
p76
sVt
p77
S't'
p78
sVw
p79
S'w'
p80
sVv
p81
S'v'
p82
sVy
p83
S'y'
p84
sVx
p85
S'x'
p86
sVz
p87
S'z'
p88
s.