(dp0
(S'6'
p1
S'q'
p2
tp3
F-8.75
s(S'X'
p4
S'Z'
p5
tp6
F0.0
s(S'0'
p7
S'x'
p8
tp9
F-8.75
s(S'z'
p10
S'h'
p11
tp12
F0.4375
s(S'd'
p13
g2
tp14
F0.0
s(g8
S'g'
p15
tp16
F2.1875
s(g2
S'C'
p17
tp18
F0.0
s(S'S'
p19
S'p'
p20
tp21
F0.0
s(S'k'
p22
S'N'
p23
tp24
F0.875
s(g11
S'E'
p25
tp26
F-8.3125
s(S'c'
p27
S'n'
p28
tp29
F0.0
s(g25
g27
tp30
F-8.3125
s(S'v'
p31
S'_'
p32
tp33
F-21.875
s(S'r'
p34
g20
tp35
F0.0
s(g2
S'5'
p36
tp37
F-8.75
s(S'I'
p38
g32
tp39
F-21.875
s(S'8'
p40
g17
tp41
F0.0
s(g15
g20
tp42
F0.0
s(S'f'
p43
g27
tp44
F0.0
s(g38
g8
tp45
F-8.3125
s(S'T'
p46
S'4'
p47
tp48
F-8.75
s(g2
g25
tp49
F-8.3125
s(S'l'
p50
g23
tp51
F0.4375
s(g4
S'm'
p52
tp53
F0.0
s(S'i'
p54
g32
tp55
F-21.875
s(g46
S'e'
p56
tp57
F-8.3125
s(g8
g46
tp58
F0.0
s(S'o'
p59
g46
tp60
F-8.3125
s(g11
S'w'
p61
tp62
F0.875
s(g47
S'j'
p63
tp64
F-8.75
s(g59
S'u'
p65
tp66
F7.4375
s(g36
g52
tp67
F-8.75
s(g52
g11
tp68
F0.0
s(g46
S'2'
p69
tp70
F-8.75
s(g2
g7
tp71
F-8.75
s(g2
S'G'
p72
tp73
F2.625
s(g19
g50
tp74
F0.0
s(S'3'
p75
g40
tp76
F-8.75
s(g7
S't'
p77
tp78
F-8.75
s(g34
S'1'
p79
tp80
F-8.75
s(g11
g38
tp81
F-8.3125
s(g13
g75
tp82
F-8.75
s(S'b'
p83
g46
tp84
F0.0
s(g13
g40
tp85
F4.375
s(g69
g8
tp86
F-8.75
s(g34
g83
tp87
F0.0
s(S'L'
p88
g54
tp89
F-8.3125
s(S'y'
p90
S'+'
p91
tp92
F-8.75
s(g13
g32
tp93
F-21.875
s(g7
g34
tp94
F-8.75
s(S'a'
p95
g23
tp96
F-8.3125
s(g63
g46
tp97
F4.375
s(g15
g77
tp98
F0.0
s(g20
g17
tp99
F0.0
s(g47
g28
tp100
F-8.75
s(g2
g69
tp101
F-8.75
s(g4
g2
tp102
F0.0
s(g91
g79
tp103
F-8.75
s(g31
g59
tp104
F-8.3125
s(g25
g40
tp105
F-8.3125
s(g8
g28
tp106
F0.4375
s(g7
g20
tp107
F-8.75
s(g95
g61
tp108
F-8.3125
s(g28
g61
tp109
F0.0
s(g17
g11
tp110
F1.3125
s(g32
g38
tp111
F-21.875
s(g13
g90
tp112
F0.4375
s(S'7'
p113
g79
tp114
F-8.75
s(S's'
p115
g15
tp116
F0.0
s(g2
g47
tp117
F-8.75
s(g19
g11
tp118
F1.3125
s(g50
S'H'
p119
tp120
F0.4375
s(g65
g1
tp121
F-8.75
s(g19
g63
tp122
F0.4375
s(g5
g34
tp123
F1.75
s(g25
g88
tp124
F-8.3125
s(g47
g25
tp125
F-8.75
s(g19
g69
tp126
F-8.75
s(g75
g75
tp127
F4.375
s(g22
g95
tp128
F-8.3125
s(g91
g27
tp129
F-8.75
s(g119
g95
tp130
F-8.3125
s(g23
g90
tp131
F0.875
s(g54
g27
tp132
F-8.3125
s(g38
g22
tp133
F-8.3125
s(g20
g65
tp134
F-8.3125
s(g46
g15
tp135
F0.875
s(g65
g119
tp136
F-8.3125
s(g4
g65
tp137
F0.0
s(g119
g69
tp138
F-8.75
s(g1
g25
tp139
F-8.75
s(g47
g40
tp140
F-8.75
s(g5
g77
tp141
F0.0
s(g63
g83
tp142
F0.0
s(g22
g8
tp143
F3.0625
s(g17
g91
tp144
F-8.75
s(g5
g28
tp145
F0.0
s(g65
g75
tp146
F-8.75
s(g17
g13
tp147
F0.875
s(g113
g77
tp148
F1.75
s(g10
g31
tp149
F0.0
s(g8
g115
tp150
F0.875
s(g19
g13
tp151
F0.0
s(g40
g40
tp152
F10.0
s(g38
g36
tp153
F-8.75
s(g72
g8
tp154
F9.1875
s(g43
g19
tp155
F0.0
s(g119
g19
tp156
F0.0
s(g27
g20
tp157
F0.0
s(g32
g59
tp158
F-21.875
s(g7
g63
tp159
F-8.75
s(g23
g22
tp160
F0.875
s(g31
g8
tp161
F1.75
s(g5
g31
tp162
F0.0
s(g27
g59
tp163
F-8.3125
s(g4
g90
tp164
F0.0
s(g11
g83
tp165
F0.4375
s(g63
g22
tp166
F0.0
s(g52
g115
tp167
F0.0
s(g23
g75
tp168
F-8.75
s(g63
g77
tp169
F1.3125
s(g8
g31
tp170
F1.75
s(g63
g43
tp171
F0.0
s(g77
g28
tp172
F0.4375
s(g7
g11
tp173
F-8.75
s(g34
g72
tp174
F6.125
s(g95
g4
tp175
F0.0
s(g11
g47
tp176
F-8.75
s(g36
g90
tp177
F-8.75
s(g75
g25
tp178
F-8.75
s(g8
g95
tp179
F-8.3125
s(g54
g54
tp180
F8.75
s(g20
g5
tp181
F0.0
s(g95
g79
tp182
F-8.75
s(g25
g19
tp183
F-8.3125
s(g8
g79
tp184
F-8.75
s(g61
g19
tp185
F0.0
s(g28
g69
tp186
F-8.75
s(g36
g25
tp187
F-8.75
s(g95
g5
tp188
F-8.3125
s(g43
g46
tp189
F0.0
s(g115
g8
tp190
F0.875
s(g38
g11
tp191
F-8.3125
s(g63
g36
tp192
F-8.75
s(g11
g20
tp193
F1.75
s(g20
g52
tp194
F0.4375
s(g11
g43
tp195
F2.1875
s(g43
g83
tp196
F1.75
s(g43
g88
tp197
F0.0
s(g46
g10
tp198
F1.75
s(g34
g90
tp199
F1.75
s(g8
g10
tp200
F0.0
s(g63
g5
tp201
F7.0
s(g11
g40
tp202
F0.875
s(g36
g4
tp203
F-8.75
s(g8
g56
tp204
F-8.3125
s(g47
g10
tp205
F-8.75
s(g52
g4
tp206
F0.0
s(g28
g63
tp207
F0.4375
s(g38
g69
tp208
F-8.75
s(g32
g52
tp209
F-21.875
s(g17
g52
tp210
F0.0
s(g7
g23
tp211
F-8.75
s(g63
g2
tp212
F0.0
s(g31
g91
tp213
F-8.75
s(g20
g32
tp214
F-21.875
s(g7
g17
tp215
F-8.75
s(g91
g90
tp216
F-8.75
s(g43
g77
tp217
F0.4375
s(g13
g77
tp218
F5.25
s(g72
g61
tp219
F0.0
s(g31
g52
tp220
F0.4375
s(g88
g46
tp221
F1.3125
s(g15
g13
tp222
F0.875
s(g20
g115
tp223
F0.0
s(g90
g32
tp224
F-21.875
s(g17
g95
tp225
F-8.3125
s(g27
g69
tp226
F-8.75
s(g61
g119
tp227
F0.0
s(g52
g22
tp228
F0.0
s(g34
g22
tp229
F0.0
s(g59
g1
tp230
F-8.75
s(g8
g11
tp231
F7.0
s(g46
g63
tp232
F4.375
s(g19
g4
tp233
F0.0
s(g50
g40
tp234
F1.75
s(g54
g91
tp235
F-8.75
s(g59
g72
tp236
F-8.3125
s(g119
g32
tp237
F-21.875
s(g69
g83
tp238
F-8.75
s(g113
g72
tp239
F1.3125
s(g61
g47
tp240
F-8.75
s(g23
g52
tp241
F0.875
s(g119
g10
tp242
F0.0
s(g38
g88
tp243
F-8.3125
s(g91
g19
tp244
F-8.75
s(g83
g38
tp245
F-8.3125
s(g23
g88
tp246
F0.0
s(g23
g38
tp247
F-8.3125
s(g65
g23
tp248
F-8.3125
s(g79
g90
tp249
F-8.75
s(g20
g56
tp250
F-8.3125
s(g36
g61
tp251
F-8.75
s(g52
g65
tp252
F-8.3125
s(g65
g4
tp253
F0.0
s(g4
g25
tp254
F0.0
s(g23
g36
tp255
F-8.75
s(g36
g27
tp256
F-8.75
s(g59
g75
tp257
F-8.75
s(g69
g13
tp258
F-8.75
s(g113
g25
tp259
F-8.3125
s(g1
g19
tp260
F-8.75
s(g72
g7
tp261
F-8.75
s(g22
g11
tp262
F1.75
s(g5
g95
tp263
F-8.3125
s(g72
g54
tp264
F-8.3125
s(g75
g90
tp265
F-8.75
s(g61
g28
tp266
F0.0
s(g8
g52
tp267
F0.0
s(g69
g32
tp268
F-21.875
s(g77
g56
tp269
F-8.3125
s(g19
g46
tp270
F0.875
s(g50
g47
tp271
F-8.75
s(g17
g115
tp272
F2.625
s(g119
g17
tp273
F0.0
s(g90
g77
tp274
F0.0
s(g10
g22
tp275
F0.0
s(g22
g59
tp276
F-8.3125
s(g90
g17
tp277
F0.4375
s(g32
g32
tp278
F0.0
s(g13
g61
tp279
F0.0
s(g5
g27
tp280
F0.875
s(g43
g119
tp281
F0.0
s(g31
g56
tp282
F-8.3125
s(g115
g50
tp283
F0.4375
s(g20
g22
tp284
F0.0
s(g90
g15
tp285
F0.4375
s(g31
g119
tp286
F0.0
s(g2
g95
tp287
F-8.3125
s(g4
g38
tp288
F0.0
s(g54
g13
tp289
F-8.3125
s(g83
g23
tp290
F0.0
s(g69
g11
tp291
F-8.75
s(g8
g20
tp292
F0.0
s(g15
g72
tp293
F1.3125
s(g72
g47
tp294
F-8.75
s(g72
g52
tp295
F0.0
s(g1
g50
tp296
F-8.75
s(g72
g91
tp297
F-8.75
s(g47
g27
tp298
F-8.75
s(g2
g27
tp299
F0.0
s(g40
g88
tp300
F0.0
s(g15
g4
tp301
F0.0
s(g25
g17
tp302
F-8.3125
s(g69
g63
tp303
F-8.75
s(g77
g79
tp304
F-8.75
s(g113
g32
tp305
F-21.875
s(g10
g59
tp306
F-8.3125
s(g43
g5
tp307
F0.0
s(g10
g2
tp308
F0.0
s(g31
g95
tp309
F-8.3125
s(g40
g27
tp310
F1.3125
s(g88
g119
tp311
F0.0
s(g23
g13
tp312
F0.4375
s(g2
g56
tp313
F-8.3125
s(g52
g52
tp314
F10.0
s(g83
g27
tp315
F0.0
s(g113
g69
tp316
F-8.75
s(g36
g22
tp317
F-8.75
s(g75
g34
tp318
F-8.75
s(g8
g47
tp319
F-8.75
s(g8
g77
tp320
F0.4375
s(g20
g79
tp321
F-8.75
s(g56
g32
tp322
F-21.875
s(g7
g19
tp323
F-8.75
s(g11
g95
tp324
F-8.3125
s(g28
g90
tp325
F0.4375
s(g61
g59
tp326
F-8.3125
s(g61
g43
tp327
F1.3125
s(g52
g119
tp328
F0.4375
s(g2
g15
tp329
F0.875
s(g19
g88
tp330
F0.0
s(g56
g119
tp331
F-8.3125
s(g54
g63
tp332
F-8.3125
s(g13
g19
tp333
F0.0
s(g83
g77
tp334
F0.0
s(g59
g5
tp335
F-8.3125
s(g13
g4
tp336
F0.0
s(g65
g13
tp337
F-8.3125
s(g38
g2
tp338
F-8.3125
s(g91
g54
tp339
F-8.75
s(g10
g65
tp340
F-8.3125
s(g95
g28
tp341
F-8.3125
s(g79
g119
tp342
F-8.75
s(g61
g52
tp343
F0.4375
s(g115
g13
tp344
F0.4375
s(g40
g69
tp345
F-8.75
s(g63
g113
tp346
F0.0
s(g20
g27
tp347
F0.0
s(g25
g52
tp348
F-8.3125
s(g56
g8
tp349
F-8.3125
s(g61
g91
tp350
F-8.75
s(g17
g7
tp351
F-8.75
s(g19
g1
tp352
F-8.75
s(g15
g88
tp353
F0.0
s(g59
g4
tp354
F0.0
s(g69
g20
tp355
F-8.75
s(g28
g22
tp356
F0.0
s(g15
g31
tp357
F0.4375
s(g83
g7
tp358
F-8.75
s(g43
g61
tp359
F1.3125
s(g1
g13
tp360
F-8.75
s(g75
g52
tp361
F-8.75
s(g17
g119
tp362
F0.0
s(g61
g10
tp363
F0.4375
s(g8
g90
tp364
F0.875
s(g56
g5
tp365
F-8.3125
s(g2
g46
tp366
F0.0
s(g19
g119
tp367
F0.0
s(g7
g28
tp368
F-8.75
s(g34
g77
tp369
F1.3125
s(g69
g34
tp370
F-8.75
s(g43
g52
tp371
F0.0
s(g119
g77
tp372
F0.0
s(g5
g40
tp373
F0.0
s(g91
g69
tp374
F-8.75
s(g22
g47
tp375
F-8.75
s(g119
g63
tp376
F0.0
s(g83
g69
tp377
F-8.75
s(g52
g91
tp378
F-8.75
s(g95
g47
tp379
F-8.75
s(g79
g88
tp380
F-8.75
s(g91
g17
tp381
F-8.75
s(g83
g90
tp382
F0.0
s(g54
g17
tp383
F-8.3125
s(g46
g31
tp384
F0.0
s(g119
g113
tp385
F0.0
s(g95
g19
tp386
F-8.3125
s(g52
g56
tp387
F-8.3125
s(g75
g63
tp388
F-8.75
s(g69
g77
tp389
F-8.75
s(g52
g10
tp390
F0.0
s(g5
g46
tp391
F3.9375
s(g22
g4
tp392
F0.0
s(g56
g2
tp393
F-8.3125
s(g17
g31
tp394
F0.0
s(g27
g113
tp395
F0.0
s(g28
g43
tp396
F0.0
s(g61
g15
tp397
F0.0
s(g34
g36
tp398
F-8.75
s(g113
g46
tp399
F0.0
s(g28
g20
tp400
F0.0
s(g77
g65
tp401
F-8.3125
s(g34
g43
tp402
F0.0
s(g40
g4
tp403
F0.0
s(g22
g115
tp404
F0.4375
s(g72
g4
tp405
F0.0
s(g7
g31
tp406
F-8.75
s(g119
g115
tp407
F0.0
s(g69
g31
tp408
F-8.75
s(g31
g75
tp409
F-8.75
s(g4
g34
tp410
F0.0
s(g20
g72
tp411
F0.0
s(g43
g23
tp412
F0.0
s(g5
g115
tp413
F0.4375
s(g36
g1
tp414
F2.1875
s(g95
g43
tp415
F-8.3125
s(g31
g65
tp416
F-1.75
s(g61
g56
tp417
F-8.3125
s(g40
g59
tp418
F-8.3125
s(g27
g52
tp419
F0.4375
s(g79
g34
tp420
F-8.75
s(g31
g4
tp421
F0.0
s(g23
g113
tp422
F0.4375
s(g83
g113
tp423
F0.4375
s(g95
g72
tp424
F-8.3125
s(g10
g75
tp425
F-8.75
s(g79
g115
tp426
F-8.75
s(g75
g43
tp427
F-8.75
s(g52
g19
tp428
F0.0
s(g13
g23
tp429
F0.4375
s(g47
g91
tp430
F-8.75
s(g15
g61
tp431
F0.0
s(g11
g52
tp432
F0.0
s(g77
g23
tp433
F0.4375
s(g17
g34
tp434
F0.875
s(g95
g8
tp435
F-8.3125
s(g1
g38
tp436
F-8.75
s(g27
g46
tp437
F2.625
s(g75
g56
tp438
F-8.75
s(g61
g34
tp439
F0.4375
s(g54
g38
tp440
F7.0
s(g115
g69
tp441
F-8.75
s(g32
g34
tp442
F-21.875
s(g46
g20
tp443
F0.0
s(g20
g10
tp444
F0.0
s(g47
g115
tp445
F-8.75
s(g77
g47
tp446
F-8.75
s(g15
g119
tp447
F0.0
s(g32
g91
tp448
F-21.875
s(g59
g32
tp449
F-21.875
s(g17
g32
tp450
F-21.875
s(g69
g10
tp451
F-8.75
s(g88
g69
tp452
F-8.75
s(g46
g75
tp453
F-8.75
s(g38
g59
tp454
F6.125
s(g95
g10
tp455
F-8.3125
s(g72
g19
tp456
F0.0
s(g31
g2
tp457
F0.0
s(g23
g77
tp458
F0.4375
s(g79
g31
tp459
F-8.75
s(g32
g20
tp460
F-21.875
s(g28
g52
tp461
F1.3125
s(g2
g32
tp462
F-21.875
s(g52
g34
tp463
F0.0
s(g88
g7
tp464
F-8.75
s(g46
g79
tp465
F-8.75
s(g56
g90
tp466
F-8.3125
s(g113
g22
tp467
F3.9375
s(g75
g95
tp468
F-8.75
s(g36
g40
tp469
F-8.75
s(g47
g5
tp470
F-8.75
s(g56
g23
tp471
F-8.3125
s(g54
g7
tp472
F-8.75
s(g83
g13
tp473
F0.4375
s(g59
g63
tp474
F-8.3125
s(g31
g69
tp475
F-8.75
s(g43
g95
tp476
F-8.3125
s(g65
g77
tp477
F-8.3125
s(g19
g90
tp478
F0.4375
s(g38
g95
tp479
F7.0
s(g25
g2
tp480
F-8.3125
s(g113
g54
tp481
F-8.3125
s(g28
g75
tp482
F-8.75
s(g75
g46
tp483
F-8.75
s(g40
g61
tp484
F0.0
s(g88
g77
tp485
F1.3125
s(g54
g8
tp486
F-8.3125
s(g28
g32
tp487
F-21.875
s(g22
g34
tp488
F0.0
s(g10
g63
tp489
F3.5
s(g77
g63
tp490
F1.3125
s(g7
g50
tp491
F-8.75
s(g59
g11
tp492
F-8.3125
s(g79
g7
tp493
F2.1875
s(g15
g43
tp494
F0.0
s(g1
g63
tp495
F-8.75
s(g95
g20
tp496
F-8.3125
s(g1
g77
tp497
F-8.75
s(g91
g10
tp498
F-8.75
s(g47
g52
tp499
F-8.75
s(g4
g91
tp500
F-2.1875
s(g20
g34
tp501
F0.0
s(g4
g7
tp502
F-8.75
s(g19
g40
tp503
F1.3125
s(g40
g13
tp504
F4.375
s(g119
g38
tp505
F-8.3125
s(g23
g95
tp506
F-8.3125
s(g59
g15
tp507
F-8.3125
s(g65
g43
tp508
F-2.625
s(g40
g47
tp509
F-8.75
s(g15
g52
tp510
F0.0
s(g88
g36
tp511
F-8.75
s(g65
g20
tp512
F-8.3125
s(g19
g65
tp513
F-8.3125
s(g38
g50
tp514
F-8.3125
s(g36
g13
tp515
F-8.75
s(g95
g34
tp516
F-8.3125
s(g75
g27
tp517
F-8.75
s(g91
g75
tp518
F-8.75
s(g83
g54
tp519
F-8.3125
s(g27
g95
tp520
F-8.3125
s(g119
g79
tp521
F-8.75
s(g90
g88
tp522
F1.3125
s(g65
g15
tp523
F-8.3125
s(g40
g79
tp524
F-8.75
s(g54
g1
tp525
F-8.75
s(g28
g40
tp526
F0.0
s(g36
g17
tp527
F-8.75
s(g5
g52
tp528
F0.0
s(g47
g11
tp529
F-8.75
s(g79
g47
tp530
F2.1875
s(g56
g61
tp531
F-8.3125
s(g52
g63
tp532
F0.4375
s(g28
g13
tp533
F1.75
s(g1
g43
tp534
F-8.75
s(g22
g119
tp535
F0.0
s(g50
g15
tp536
F1.3125
s(g113
g27
tp537
F0.0
s(g72
g38
tp538
F-8.3125
s(g38
g1
tp539
F-8.75
s(g1
g20
tp540
F-8.75
s(g65
g27
tp541
F-8.3125
s(g61
g23
tp542
F0.0
s(g77
g25
tp543
F-8.3125
s(g119
g46
tp544
F0.0
s(g4
g47
tp545
F-8.75
s(g19
g47
tp546
F-8.75
s(g77
g69
tp547
F-8.75
s(g38
g25
tp548
F6.5625
s(g5
g59
tp549
F-8.3125
s(g17
g19
tp550
F1.3125
s(g63
g38
tp551
F-8.3125
s(g13
g20
tp552
F0.0
s(g91
g95
tp553
F-8.75
s(g19
g2
tp554
F0.0
s(g20
g61
tp555
F0.875
s(g90
g27
tp556
F0.875
s(g5
g17
tp557
F0.875
s(g113
g95
tp558
F-8.3125
s(g43
g11
tp559
F2.1875
s(g31
g25
tp560
F-8.3125
s(g72
g63
tp561
F0.0
s(g32
g43
tp562
F-21.875
s(g34
g59
tp563
F-8.3125
s(g40
g36
tp564
F-8.75
s(g56
g75
tp565
F-8.75
s(g63
g27
tp566
F3.5
s(g52
g17
tp567
F0.0
s(g59
g20
tp568
F-8.3125
s(g69
g119
tp569
F-8.75
s(g119
g88
tp570
F0.0
s(g43
g75
tp571
F-8.75
s(g46
g13
tp572
F2.1875
s(g27
g13
tp573
F1.3125
s(g1
g88
tp574
F-8.75
s(g88
g63
tp575
F0.0
s(g56
g34
tp576
F-8.3125
s(g4
g75
tp577
F-8.75
s(g20
g63
tp578
F0.0
s(g47
g17
tp579
F-8.75
s(g4
g40
tp580
F0.0
s(g19
g7
tp581
F-8.75
s(g40
g50
tp582
F1.75
s(g15
g8
tp583
F2.1875
s(g59
g59
tp584
F8.75
s(g59
g115
tp585
F-8.3125
s(g19
g52
tp586
F0.0
s(g90
g7
tp587
F-8.75
s(g115
g10
tp588
F4.375
s(g34
g7
tp589
F-8.75
s(g46
g83
tp590
F0.0
s(g75
g119
tp591
F-8.75
s(g119
g13
tp592
F0.0
s(g34
g95
tp593
F-8.3125
s(g88
g11
tp594
F1.3125
s(g15
g7
tp595
F-8.75
s(g72
g28
tp596
F0.0
s(g46
g90
tp597
F1.3125
s(g10
g46
tp598
F1.75
s(g115
g25
tp599
F-8.3125
s(g47
g83
tp600
F-8.75
s(g69
g88
tp601
F-8.75
s(g79
g46
tp602
F-8.75
s(g52
g83
tp603
F0.875
s(g79
g38
tp604
F-8.75
s(g36
g113
tp605
F-8.75
s(g11
g113
tp606
F2.625
s(g36
g43
tp607
F-8.75
s(g2
g1
tp608
F-8.75
s(g59
g36
tp609
F-8.75
s(g4
g113
tp610
F0.0
s(g2
g20
tp611
F0.0
s(g56
g11
tp612
F-8.3125
s(g43
g15
tp613
F0.0
s(g13
g115
tp614
F0.4375
s(g59
g10
tp615
F-8.3125
s(g13
g8
tp616
F0.4375
s(g19
g54
tp617
F-8.3125
s(g36
g79
tp618
F2.1875
s(g20
g59
tp619
F-8.3125
s(g90
g22
tp620
F0.0
s(g25
g95
tp621
F7.875
s(g91
g38
tp622
F-8.75
s(g115
g113
tp623
F0.4375
s(g25
g83
tp624
F-8.3125
s(g79
g11
tp625
F-8.75
s(g15
g47
tp626
F-8.75
s(g27
g15
tp627
F0.875
s(g2
g34
tp628
F0.0
s(g22
g83
tp629
F0.0
s(g113
g8
tp630
F1.75
s(g77
g10
tp631
F0.0
s(g59
g8
tp632
F-8.3125
s(g13
g43
tp633
F0.4375
s(g25
g8
tp634
F-8.3125
s(g20
g4
tp635
F0.0
s(g1
g10
tp636
F-8.75
s(g20
g23
tp637
F0.0
s(g95
g113
tp638
F-8.3125
s(g88
g52
tp639
F0.0
s(g91
g63
tp640
F-8.75
s(g1
g91
tp641
F-8.75
s(g113
g65
tp642
F-8.3125
s(g61
g5
tp643
F0.0
s(g90
g5
tp644
F3.0625
s(g56
g10
tp645
F-8.3125
s(g22
g90
tp646
F0.0
s(g20
g83
tp647
F4.375
s(g2
g77
tp648
F0.4375
s(g52
g79
tp649
F-8.75
s(g79
g13
tp650
F-8.75
s(g119
g90
tp651
F0.4375
s(g23
g2
tp652
F0.0
s(g34
g46
tp653
F0.875
s(g65
g31
tp654
F-1.75
s(g119
g59
tp655
F-8.3125
s(g91
g91
tp656
F0.0
s(g19
g56
tp657
F-8.3125
s(g25
g10
tp658
F-8.3125
s(g47
g7
tp659
F2.1875
s(g88
g22
tp660
F0.0
s(g79
g19
tp661
F-8.75
s(g27
g2
tp662
F0.0
s(g90
g79
tp663
F-8.75
s(g95
g88
tp664
F-8.3125
s(g95
g115
tp665
F-8.3125
s(g2
g31
tp666
F0.0
s(g1
g1
tp667
F4.375
s(g65
g91
tp668
F-8.75
s(g52
g25
tp669
F-8.3125
s(g69
g46
tp670
F-8.75
s(g47
g8
tp671
F-8.75
s(g91
g65
tp672
F-8.75
s(g52
g5
tp673
F0.0
s(g22
g91
tp674
F-8.75
s(g1
g31
tp675
F-8.75
s(g77
g54
tp676
F-8.3125
s(g17
g22
tp677
F0.875
s(g61
g72
tp678
F0.0
s(g65
g115
tp679
F-8.3125
s(g10
g17
tp680
F0.4375
s(g113
g47
tp681
F-8.75
s(g10
g1
tp682
F-8.75
s(g56
g43
tp683
F-8.3125
s(g95
g65
tp684
F5.25
s(g8
g75
tp685
F-8.75
s(g40
g8
tp686
F0.0
s(g22
g19
tp687
F0.4375
s(g2
g90
tp688
F0.0
s(g27
g7
tp689
F-8.75
s(g19
g95
tp690
F-8.3125
s(g11
g10
tp691
F0.4375
s(g20
g15
tp692
F0.0
s(g43
g28
tp693
F0.0
s(g5
g19
tp694
F0.875
s(g23
g91
tp695
F-8.75
s(g15
g32
tp696
F-21.875
s(g5
g90
tp697
F3.0625
s(g88
g75
tp698
F-8.75
s(g77
g43
tp699
F0.4375
s(g31
g40
tp700
F0.0
s(g115
g90
tp701
F0.4375
s(g113
g20
tp702
F0.0
s(g54
g95
tp703
F6.125
s(g46
g17
tp704
F8.3125
s(g13
g28
tp705
F1.75
s(g63
g47
tp706
F-8.75
s(g91
g31
tp707
F-8.75
s(g8
g1
tp708
F-8.75
s(g27
g43
tp709
F0.0
s(g25
g22
tp710
F-8.3125
s(g17
g15
tp711
F0.0
s(g27
g77
tp712
F2.1875
s(g17
g88
tp713
F0.0
s(g43
g69
tp714
F-8.75
s(g90
g83
tp715
F0.0
s(g34
g8
tp716
F2.625
s(g47
g19
tp717
F-8.75
s(g7
g115
tp718
F-8.75
s(g15
g11
tp719
F1.3125
s(g69
g5
tp720
F-8.75
s(g23
g11
tp721
F0.4375
s(g46
g52
tp722
F0.0
s(g115
g91
tp723
F-8.75
s(g63
g20
tp724
F0.0
s(g36
g77
tp725
F-8.75
s(g23
g46
tp726
F0.0
s(g28
g95
tp727
F-8.3125
s(g11
g7
tp728
F-8.75
s(g40
g38
tp729
F-8.3125
s(g47
g34
tp730
F-8.75
s(g75
g61
tp731
F-8.75
s(g65
g69
tp732
F-8.75
s(g43
g32
tp733
F-21.875
s(g90
g90
tp734
F10.0
s(g34
g63
tp735
F0.4375
s(g88
g95
tp736
F-8.3125
s(g61
g40
tp737
F0.0
s(g56
g28
tp738
F-8.3125
s(g10
g52
tp739
F0.0
s(g91
g46
tp740
F-8.75
s(g38
g34
tp741
F-8.3125
s(g31
g19
tp742
F0.0
s(g63
g79
tp743
F-8.75
s(g65
g46
tp744
F-8.3125
s(g43
g7
tp745
F-8.75
s(g113
g38
tp746
F-8.3125
s(g28
g19
tp747
F0.4375
s(g75
g77
tp748
F-8.75
s(g15
g23
tp749
F0.875
s(g54
g4
tp750
F0.0
s(g13
g25
tp751
F-8.3125
s(g11
g27
tp752
F0.4375
s(g34
g91
tp753
F-8.75
s(g22
g27
tp754
F0.4375
s(g50
g61
tp755
F0.0
s(g25
g11
tp756
F-8.3125
s(g20
g119
tp757
F0.0
s(g32
g31
tp758
F-21.875
s(g77
g7
tp759
F-8.75
s(g43
g25
tp760
F-8.3125
s(g1
g46
tp761
F-8.75
s(g91
g5
tp762
F-8.75
s(g23
g65
tp763
F-8.3125
s(g113
g63
tp764
F0.0
s(g22
g54
tp765
F-8.3125
s(g91
g7
tp766
F-8.75
s(g91
g22
tp767
F-8.75
s(g63
g17
tp768
F0.4375
s(g7
g43
tp769
F-8.75
s(g54
g22
tp770
F-8.3125
s(g72
g115
tp771
F0.875
s(g52
g1
tp772
F-8.75
s(g5
g11
tp773
F0.0
s(g61
g77
tp774
F0.0
s(g90
g119
tp775
F0.4375
s(g5
g36
tp776
F-8.75
s(g32
g77
tp777
F-21.875
s(g63
g11
tp778
F0.4375
s(g75
g20
tp779
F-8.75
s(g40
g43
tp780
F0.0
s(g90
g50
tp781
F1.75
s(g28
g23
tp782
F5.6875
s(g115
g52
tp783
F0.0
s(g28
g4
tp784
F0.0
s(g75
g59
tp785
F-8.75
s(g47
g119
tp786
F-8.75
s(g65
g10
tp787
F-8.3125
s(g72
g20
tp788
F0.0
s(g77
g90
tp789
F0.0
s(g113
g17
tp790
F0.0
s(g65
g17
tp791
F-8.3125
s(g61
g7
tp792
F-8.75
s(g54
g47
tp793
F-8.75
s(g32
g65
tp794
F-21.875
s(g119
g31
tp795
F0.0
s(g91
g47
tp796
F-8.75
s(g22
g1
tp797
F-8.75
s(g27
g25
tp798
F-8.3125
s(g36
g5
tp799
F-8.75
s(g22
g17
tp800
F0.875
s(g50
g2
tp801
F0.0
s(g10
g91
tp802
F-8.75
s(g25
g113
tp803
F-8.3125
s(g2
g75
tp804
F-8.75
s(g88
g61
tp805
F0.4375
s(g40
g63
tp806
F0.0
s(g11
g65
tp807
F-8.3125
s(g20
g91
tp808
F-8.75
s(g77
g31
tp809
F0.0
s(g10
g20
tp810
F0.0
s(g83
g72
tp811
F0.0
s(g75
g22
tp812
F-8.75
s(g46
g4
tp813
F0.0
s(g8
g7
tp814
F-8.75
s(g7
g46
tp815
F-8.75
s(g91
g43
tp816
F-8.75
s(g17
g54
tp817
F-8.3125
s(g72
g77
tp818
F0.0
s(g27
g31
tp819
F0.0
s(g20
g31
tp820
F1.75
s(g1
g75
tp821
F2.1875
s(g113
g83
tp822
F0.4375
s(g10
g90
tp823
F1.75
s(g72
g22
tp824
F3.9375
s(g25
g31
tp825
F-8.3125
s(g79
g23
tp826
F-8.75
s(g23
g28
tp827
F5.6875
s(g50
g52
tp828
F0.0
s(g23
g8
tp829
F0.875
s(g10
g79
tp830
F-8.75
s(g2
g113
tp831
F3.5
s(g75
g11
tp832
F-8.75
s(g11
g90
tp833
F0.875
s(g72
g23
tp834
F0.0
s(g11
g59
tp835
F-8.3125
s(g10
g77
tp836
F0.0
s(g115
g56
tp837
F-8.3125
s(g36
g91
tp838
F-8.75
s(g75
g69
tp839
F2.1875
s(g28
g34
tp840
F1.3125
s(g115
g47
tp841
F-8.75
s(g50
g22
tp842
F0.0
s(g17
g56
tp843
F-8.3125
s(g54
g83
tp844
F-8.3125
s(g11
g69
tp845
F-8.75
s(g83
g88
tp846
F0.0
s(g43
g90
tp847
F0.0
s(g38
g38
tp848
F8.75
s(g72
g59
tp849
F-8.3125
s(g38
g83
tp850
F-8.3125
s(g88
g88
tp851
F10.0
s(g83
g28
tp852
F0.0
s(g27
g22
tp853
F0.4375
s(g27
g23
tp854
F0.0
s(g28
g72
tp855
F0.0
s(g83
g32
tp856
F-21.875
s(g17
g40
tp857
F0.0
s(g25
g47
tp858
F-8.75
s(g19
g38
tp859
F-8.3125
s(g34
g115
tp860
F0.875
s(g10
g36
tp861
F-8.75
s(g40
g34
tp862
F0.0
s(g31
g43
tp863
F4.8125
s(g22
g36
tp864
F-8.75
s(g31
g15
tp865
F0.4375
s(g61
g22
tp866
F0.4375
s(g17
g20
tp867
F0.0
s(g115
g95
tp868
F-8.3125
s(g113
g4
tp869
F0.0
s(g77
g5
tp870
F0.0
s(g115
g7
tp871
F-8.75
s(g56
g88
tp872
F-8.3125
s(g25
g4
tp873
F0.0
s(g20
g8
tp874
F0.0
s(g1
g5
tp875
F-8.75
s(g83
g20
tp876
F4.375
s(g63
g52
tp877
F0.4375
s(g20
g28
tp878
F0.0
s(g15
g25
tp879
F-8.3125
s(g63
g1
tp880
F-8.75
s(g90
g10
tp881
F1.75
s(g61
g54
tp882
F-8.3125
s(g34
g47
tp883
F-8.75
s(g77
g59
tp884
F-8.3125
s(g79
g2
tp885
F-8.75
s(g119
g47
tp886
F-8.75
s(g17
g47
tp887
F-8.75
s(g5
g8
tp888
F0.0
s(g34
g56
tp889
F-8.3125
s(g19
g25
tp890
F-8.3125
s(g25
g5
tp891
F-8.3125
s(g22
g77
tp892
F0.875
s(g83
g34
tp893
F0.0
s(g32
g13
tp894
F-21.875
s(g8
g17
tp895
F0.4375
s(g28
g88
tp896
F0.4375
s(g31
g63
tp897
F0.0
s(g46
g1
tp898
F-8.75
s(g95
g50
tp899
F-8.3125
s(g72
g95
tp900
F-8.3125
s(g77
g52
tp901
F0.0
s(g54
g72
tp902
F-8.3125
s(g47
g59
tp903
F-8.75
s(g47
g4
tp904
F-8.75
s(g77
g38
tp905
F-8.3125
s(g56
g79
tp906
F-8.75
s(g119
g20
tp907
F0.0
s(g65
g19
tp908
F-8.3125
s(g10
g27
tp909
F1.3125
s(g119
g43
tp910
F0.0
s(g77
g36
tp911
F-8.75
s(g19
g61
tp912
F0.0
s(g4
g13
tp913
F0.0
s(g32
g83
tp914
F-21.875
s(g43
g17
tp915
F0.0
s(g5
g32
tp916
F-21.875
s(g79
g65
tp917
F-8.75
s(g119
g75
tp918
F-8.75
s(g11
g13
tp919
F0.4375
s(g50
g95
tp920
F-8.3125
s(g11
g5
tp921
F0.0
s(g54
g50
tp922
F-8.3125
s(g31
g36
tp923
F-8.75
s(g79
g69
tp924
F2.1875
s(g56
g65
tp925
F4.8125
s(g17
g10
tp926
F0.4375
s(g46
g88
tp927
F1.3125
s(g13
g83
tp928
F0.4375
s(g72
g56
tp929
F-8.3125
s(g61
g27
tp930
F0.0
s(g83
g61
tp931
F2.625
s(g46
g27
tp932
F2.625
s(g47
g22
tp933
F-8.75
s(g15
g113
tp934
F1.3125
s(g20
g20
tp935
F10.0
s(g32
g5
tp936
F-21.875
s(g17
g72
tp937
F1.3125
s(g63
g56
tp938
F-8.3125
s(g72
g88
tp939
F0.0
s(g20
g43
tp940
F4.375
s(g95
g40
tp941
F-8.3125
s(g36
g38
tp942
F-8.75
s(g34
g4
tp943
F0.0
s(g115
g34
tp944
F0.875
s(g19
g115
tp945
F7.875
s(g4
g27
tp946
F0.0
s(g46
g7
tp947
F-8.75
s(g4
g11
tp948
F0.0
s(g25
g43
tp949
F-8.3125
s(g23
g50
tp950
F0.4375
s(g46
g95
tp951
F-8.3125
s(g11
g11
tp952
F10.0
s(g10
g88
tp953
F1.3125
s(g83
g75
tp954
F-8.75
s(g36
g11
tp955
F-8.75
s(g23
g119
tp956
F2.1875
s(g31
g79
tp957
F-8.75
s(g36
g46
tp958
F-8.75
s(g23
g47
tp959
F-8.75
s(g79
g1
tp960
F2.1875
s(g32
g69
tp961
F-21.875
s(g32
g7
tp962
F-21.875
s(g95
g13
tp963
F-8.3125
s(g40
g54
tp964
F-8.3125
s(g2
g119
tp965
F0.0
s(g83
g36
tp966
F-8.75
s(g36
g63
tp967
F-8.75
s(g61
g95
tp968
F-8.3125
s(g28
g36
tp969
F-8.75
s(g77
g13
tp970
F5.25
s(g43
g10
tp971
F0.0
s(g113
g91
tp972
F-8.75
s(g15
g2
tp973
F0.875
s(g65
g50
tp974
F-8.3125
s(g38
g90
tp975
F-8.3125
s(g113
g31
tp976
F0.0
s(g19
g59
tp977
F-8.3125
s(g4
g15
tp978
F0.0
s(g63
g91
tp979
F-8.75
s(g4
g50
tp980
F0.0
s(g54
g20
tp981
F-8.3125
s(g77
g83
tp982
F0.0
s(g43
g13
tp983
F0.4375
s(g47
g13
tp984
F-8.75
s(g28
g115
tp985
F0.4375
s(g56
g17
tp986
F-8.3125
s(g47
g69
tp987
F2.1875
s(g15
g28
tp988
F0.0
s(g79
g75
tp989
F2.1875
s(g54
g56
tp990
F7.875
s(g13
g56
tp991
F-8.3125
s(g83
g40
tp992
F0.0
s(g13
g63
tp993
F1.75
s(g11
g17
tp994
F1.3125
s(g88
g25
tp995
F-8.3125
s(g20
g46
tp996
F0.0
s(g59
g91
tp997
F-8.75
s(g65
g54
tp998
F6.125
s(g2
g88
tp999
F0.0
s(g25
g119
tp1000
F-8.3125
s(g20
g11
tp1001
F1.75
s(g90
g43
tp1002
F0.0
s(g43
g56
tp1003
F-8.3125
s(g15
g65
tp1004
F-8.3125
s(g5
g7
tp1005
F-8.75
s(g115
g63
tp1006
F0.0
s(g32
g75
tp1007
F-21.875
s(g19
g22
tp1008
F0.4375
s(g4
g22
tp1009
F0.0
s(g22
g38
tp1010
F-8.3125
s(g20
g69
tp1011
F-8.75
s(g88
g17
tp1012
F0.0
s(g4
g20
tp1013
F0.0
s(g2
g23
tp1014
F0.0
s(g5
g119
tp1015
F0.0
s(g36
g20
tp1016
F-8.75
s(g19
g36
tp1017
F-8.75
s(g61
g46
tp1018
F0.4375
s(g90
g11
tp1019
F0.875
s(g22
g13
tp1020
F0.4375
s(g83
g83
tp1021
F10.0
s(g32
g46
tp1022
F-21.875
s(g115
g17
tp1023
F2.625
s(g47
g113
tp1024
F-8.75
s(g95
g69
tp1025
F-8.75
s(g63
g119
tp1026
F0.0
s(g54
g69
tp1027
F-8.75
s(g79
g113
tp1028
F-8.75
s(g31
g10
tp1029
F0.0
s(g28
g28
tp1030
F10.0
s(g36
g72
tp1031
F-8.75
s(g40
g2
tp1032
F0.0
s(g88
g31
tp1033
F0.0
s(g54
g31
tp1034
F-8.3125
s(g28
g8
tp1035
F0.4375
s(g91
g50
tp1036
F-8.75
s(g43
g40
tp1037
F0.0
s(g34
g28
tp1038
F1.3125
s(g56
g113
tp1039
F-8.3125
s(g36
g34
tp1040
F-8.75
s(g90
g113
tp1041
F0.875
s(g52
g113
tp1042
F0.0
s(g38
g31
tp1043
F-8.3125
s(g115
g43
tp1044
F0.4375
s(g19
g15
tp1045
F0.0
s(g4
g59
tp1046
F0.0
s(g4
g77
tp1047
F0.0
s(g27
g56
tp1048
F-8.3125
s(g79
g63
tp1049
F-8.75
s(g59
g69
tp1050
F-8.75
s(g95
g59
tp1051
F7.4375
s(g10
g4
tp1052
F0.0
s(g83
g17
tp1053
F0.0
s(g19
g79
tp1054
F-8.75
s(g20
g113
tp1055
F0.0
s(g2
g19
tp1056
F0.0
s(g15
g59
tp1057
F-8.3125
s(g88
g113
tp1058
F0.875
s(g17
g79
tp1059
F-8.75
s(g13
g52
tp1060
F0.0
s(g31
g31
tp1061
F10.0
s(g83
g15
tp1062
F0.4375
s(g20
g88
tp1063
F0.0
s(g32
g10
tp1064
F-21.875
s(g46
g8
tp1065
F0.0
s(g59
g7
tp1066
F-8.75
s(g56
g13
tp1067
F-8.3125
s(g17
g38
tp1068
F-8.3125
s(g72
g46
tp1069
F0.0
s(g10
g61
tp1070
F0.4375
s(g54
g59
tp1071
F5.25
s(g56
g69
tp1072
F-8.75
s(g19
g27
tp1073
F0.4375
s(g4
g115
tp1074
F0.0
s(g43
g50
tp1075
F0.0
s(g4
g8
tp1076
F0.0
s(g79
g95
tp1077
F-8.75
s(g52
g90
tp1078
F0.0
s(g7
g22
tp1079
F-8.75
s(g15
g40
tp1080
F0.0
s(g28
g38
tp1081
F-8.3125
s(g36
g15
tp1082
F-8.75
s(g79
g28
tp1083
F-8.75
s(g56
g4
tp1084
F0.0
s(g32
g8
tp1085
F-21.875
s(g23
g23
tp1086
F10.0
s(g1
g40
tp1087
F-8.75
s(g61
g1
tp1088
F-8.75
s(g113
g50
tp1089
F0.875
s(g23
g4
tp1090
F0.0
s(g90
g20
tp1091
F0.0
s(g65
g36
tp1092
F-8.75
s(g43
g113
tp1093
F0.0
s(g27
g5
tp1094
F0.875
s(g32
g115
tp1095
F-21.875
s(g88
g90
tp1096
F1.3125
s(g10
g25
tp1097
F-8.3125
s(g38
g5
tp1098
F-8.3125
s(g17
g25
tp1099
F-8.3125
s(g63
g15
tp1100
F0.4375
s(g77
g77
tp1101
F10.0
s(g83
g50
tp1102
F0.4375
s(g15
g95
tp1103
F-8.3125
s(g1
g59
tp1104
F-8.75
s(g38
g54
tp1105
F7.0
s(g15
g46
tp1106
F0.875
s(g25
g90
tp1107
F-8.3125
s(g13
g1
tp1108
F-8.75
s(g4
g61
tp1109
F0.0
s(g15
g38
tp1110
F-8.3125
s(g88
g50
tp1111
F8.3125
s(g59
g88
tp1112
F-8.3125
s(g95
g15
tp1113
F-8.3125
s(g28
g15
tp1114
F0.0
s(g22
g10
tp1115
F0.0
s(g59
g22
tp1116
F-8.3125
s(g8
g38
tp1117
F-8.3125
s(g13
g38
tp1118
F-8.3125
s(g77
g34
tp1119
F1.3125
s(g34
g19
tp1120
F0.4375
s(g115
g61
tp1121
F0.0
s(g47
g77
tp1122
F-8.75
s(g38
g75
tp1123
F-8.75
s(g31
g72
tp1124
F0.0
s(g65
g59
tp1125
F7.4375
s(g113
g40
tp1126
F0.0
s(g65
g90
tp1127
F-8.3125
s(g59
g40
tp1128
F-8.3125
s(g95
g90
tp1129
F-8.3125
s(g56
g50
tp1130
F-8.3125
s(g7
g83
tp1131
F-8.75
s(g54
g115
tp1132
F-8.3125
s(g31
g50
tp1133
F0.4375
s(g15
g56
tp1134
F-8.3125
s(g1
g22
tp1135
F-8.75
s(g77
g27
tp1136
F2.1875
s(g50
g4
tp1137
F0.0
s(g23
g63
tp1138
F0.0
s(g61
g38
tp1139
F-8.3125
s(g52
g2
tp1140
F0.0
s(g79
g59
tp1141
F-8.75
s(g23
g79
tp1142
F-8.75
s(g59
g38
tp1143
F6.125
s(g59
g113
tp1144
F-8.3125
s(g7
g75
tp1145
F2.1875
s(g28
g1
tp1146
F-8.75
s(g61
g113
tp1147
F0.875
s(g50
g91
tp1148
F-8.75
s(g5
g4
tp1149
F0.0
s(g34
g25
tp1150
F-8.3125
s(g113
g13
tp1151
F0.4375
s(g90
g25
tp1152
F-8.3125
s(g10
g43
tp1153
F0.0
s(g22
g46
tp1154
F1.3125
s(g5
g56
tp1155
F-8.3125
s(g119
g52
tp1156
F0.4375
s(g8
g27
tp1157
F0.0
s(g47
g20
tp1158
F-8.75
s(g69
g91
tp1159
F-8.75
s(g88
g91
tp1160
F-8.75
s(g27
g79
tp1161
F-8.75
s(g28
g50
tp1162
F1.3125
s(g77
g95
tp1163
F-8.3125
s(g1
g54
tp1164
F-8.75
s(g95
g75
tp1165
F-8.75
s(g65
g22
tp1166
F-8.3125
s(g7
g79
tp1167
F2.1875
s(g91
g25
tp1168
F-8.75
s(g61
g36
tp1169
F-8.75
s(g63
g32
tp1170
F-21.875
s(g22
g22
tp1171
F10.0
s(g27
g19
tp1172
F0.4375
s(g5
g15
tp1173
F0.4375
s(g119
g22
tp1174
F0.0
s(g38
g43
tp1175
F-8.3125
s(g11
g34
tp1176
F1.3125
s(g38
g56
tp1177
F6.5625
s(g95
g36
tp1178
F-8.75
s(g88
g59
tp1179
F-8.3125
s(g27
g65
tp1180
F-8.3125
s(g8
g43
tp1181
F0.0
s(g72
g83
tp1182
F0.0
s(g63
g31
tp1183
F0.0
s(g34
g61
tp1184
F0.4375
s(g95
g119
tp1185
F-8.3125
s(g47
g47
tp1186
F4.375
s(g54
g90
tp1187
F-0.875
s(g54
g88
tp1188
F-8.3125
s(g115
g59
tp1189
F-8.3125
s(g43
g91
tp1190
F-8.75
s(g38
g7
tp1191
F-8.75
s(g17
g59
tp1192
F-8.3125
s(g17
g5
tp1193
F0.875
s(g46
g50
tp1194
F0.4375
s(g72
g25
tp1195
F-8.3125
s(g61
g17
tp1196
F0.0
s(g88
g83
tp1197
F0.0
s(g113
g7
tp1198
F-8.75
s(g36
g65
tp1199
F-8.75
s(g79
g27
tp1200
F-8.75
s(g32
g63
tp1201
F-21.875
s(g95
g2
tp1202
F-8.3125
s(g115
g119
tp1203
F0.0
s(g7
g88
tp1204
F-8.75
s(g91
g1
tp1205
F-8.75
s(g59
g119
tp1206
F-8.3125
s(g31
g13
tp1207
F0.4375
s(g63
g25
tp1208
F-8.3125
s(g69
g79
tp1209
F2.1875
s(g27
g47
tp1210
F-8.75
s(g1
g27
tp1211
F-8.75
s(g11
g31
tp1212
F0.4375
s(g43
g34
tp1213
F0.0
s(g34
g40
tp1214
F0.0
s(g19
g19
tp1215
F10.0
s(g4
g17
tp1216
F0.0
s(g4
g119
tp1217
F0.0
s(g52
g54
tp1218
F-8.3125
s(g34
g54
tp1219
F-8.3125
s(g8
g63
tp1220
F0.4375
s(g72
g43
tp1221
F0.0
s(g63
g63
tp1222
F10.0
s(g7
g91
tp1223
F-8.75
s(g32
g11
tp1224
F-21.875
s(g11
g119
tp1225
F0.0
s(g10
g50
tp1226
F0.875
s(g83
g19
tp1227
F0.0
s(g36
g119
tp1228
F-8.75
s(g115
g22
tp1229
F0.4375
s(g8
g22
tp1230
F3.0625
s(g28
g5
tp1231
F0.0
s(g69
g75
tp1232
F2.1875
s(g63
g7
tp1233
F-8.75
s(g40
g7
tp1234
F-8.75
s(g36
g47
tp1235
F2.1875
s(g27
g63
tp1236
F3.5
s(g75
g113
tp1237
F-8.75
s(g2
g11
tp1238
F0.875
s(g40
g72
tp1239
F0.0
s(g27
g17
tp1240
F7.4375
s(g69
g36
tp1241
F2.1875
s(g65
g88
tp1242
F-8.3125
s(g61
g8
tp1243
F0.4375
s(g25
g54
tp1244
F6.5625
s(g75
g23
tp1245
F-8.75
s(g75
g17
tp1246
F-8.75
s(g4
g72
tp1247
F0.0
s(g8
g4
tp1248
F0.0
s(g88
g47
tp1249
F-8.75
s(g4
g88
tp1250
F0.0
s(g63
g28
tp1251
F0.4375
s(g2
g63
tp1252
F0.0
s(g22
g63
tp1253
F0.0
s(g65
g113
tp1254
F-8.3125
s(g10
g34
tp1255
F3.0625
s(g61
g63
tp1256
F0.4375
s(g8
g59
tp1257
F-8.3125
s(g69
g113
tp1258
F-8.75
s(g56
g27
tp1259
F-8.3125
s(g75
g47
tp1260
F2.1875
s(g54
g25
tp1261
F6.5625
s(g83
g4
tp1262
F0.0
s(g113
g61
tp1263
F0.875
s(g88
g56
tp1264
F-8.3125
s(g20
g77
tp1265
F0.0
s(g65
g38
tp1266
F6.5625
s(g2
g50
tp1267
F0.0
s(g31
g61
tp1268
F7.0
s(g54
g75
tp1269
F-8.75
s(g50
g113
tp1270
F0.875
s(g22
g7
tp1271
F-8.75
s(g27
g32
tp1272
F-21.875
s(g32
g1
tp1273
F-21.875
s(g77
g115
tp1274
F1.3125
s(g83
g5
tp1275
F0.0
s(g23
g10
tp1276
F0.0
s(g15
g19
tp1277
F0.0
s(g88
g27
tp1278
F0.875
s(g52
g95
tp1279
F-8.3125
s(g8
g34
tp1280
F2.625
s(g77
g32
tp1281
F-21.875
s(g72
g90
tp1282
F0.0
s(g2
g28
tp1283
F0.4375
s(g75
g38
tp1284
F-8.75
s(g52
g31
tp1285
F0.4375
s(g22
g113
tp1286
F3.9375
s(g5
g65
tp1287
F-8.3125
s(g32
g47
tp1288
F-21.875
s(g115
g27
tp1289
F4.8125
s(g75
g7
tp1290
F2.1875
s(g77
g2
tp1291
F0.4375
s(g17
g27
tp1292
F7.4375
s(g63
g90
tp1293
F5.25
s(g31
g5
tp1294
F0.0
s(g36
g95
tp1295
F-8.75
s(g119
g4
tp1296
F0.0
s(g65
g61
tp1297
F-0.875
s(g90
g75
tp1298
F-8.75
s(g38
g10
tp1299
F-8.3125
s(g119
g23
tp1300
F2.1875
s(g13
g72
tp1301
F0.0
s(g91
g88
tp1302
F-8.75
s(g13
g88
tp1303
F0.875
s(g43
g4
tp1304
F0.0
s(g47
g32
tp1305
F-21.875
s(g34
g23
tp1306
F0.4375
s(g5
g61
tp1307
F0.0
s(g22
g65
tp1308
F-8.3125
s(g2
g2
tp1309
F10.0
s(g50
g90
tp1310
F1.75
s(g38
g46
tp1311
F-8.3125
s(g61
g20
tp1312
F0.875
s(g47
g1
tp1313
F2.1875
s(g54
g77
tp1314
F-8.3125
s(g43
g43
tp1315
F10.0
s(g119
g1
tp1316
F-8.75
s(g19
g72
tp1317
F0.0
s(g8
g69
tp1318
F-8.75
s(g22
g31
tp1319
F0.0
s(g4
g46
tp1320
F0.0
s(g1
g69
tp1321
F2.1875
s(g59
g13
tp1322
F-8.3125
s(g10
g8
tp1323
F0.0
s(g50
g79
tp1324
F-8.75
s(g88
g5
tp1325
F0.0
s(g25
g61
tp1326
F-8.3125
s(g13
g95
tp1327
F-8.3125
s(g8
g61
tp1328
F0.4375
s(g2
g115
tp1329
F0.0
s(g56
g22
tp1330
F-8.3125
s(g11
g36
tp1331
F-8.75
s(g46
g61
tp1332
F0.4375
s(g77
g1
tp1333
F-8.75
s(g10
g7
tp1334
F-8.75
s(g10
g32
tp1335
F-21.875
s(g20
g50
tp1336
F0.0
s(g75
g91
tp1337
F-8.75
s(g10
g95
tp1338
F-8.3125
s(g95
g7
tp1339
F-8.75
s(g40
g19
tp1340
F1.3125
s(g88
g4
tp1341
F0.0
s(g46
g38
tp1342
F-8.3125
s(g27
g1
tp1343
F-8.75
s(g31
g77
tp1344
F0.0
s(g28
g47
tp1345
F-8.75
s(g23
g43
tp1346
F0.0
s(g2
g65
tp1347
F-8.3125
s(g50
g65
tp1348
F-8.3125
s(g59
g61
tp1349
F-8.3125
s(g115
g36
tp1350
F-8.75
s(g1
g115
tp1351
F-8.75
s(g23
g20
tp1352
F0.0
s(g46
g65
tp1353
F-8.3125
s(g19
g17
tp1354
F1.3125
s(g4
g19
tp1355
F0.0
s(g8
g13
tp1356
F0.4375
s(g4
g4
tp1357
F0.0
s(g11
g2
tp1358
F0.875
s(g46
g23
tp1359
F0.0
s(g28
g54
tp1360
F-8.3125
s(g59
g95
tp1361
F7.4375
s(g32
g4
tp1362
F-21.875
s(g11
g15
tp1363
F1.3125
s(g38
g27
tp1364
F-8.3125
s(g52
g28
tp1365
F1.3125
s(g113
g88
tp1366
F0.875
s(g23
g40
tp1367
F0.0
s(g2
g61
tp1368
F0.0
s(g50
g115
tp1369
F0.4375
s(g54
g10
tp1370
F-8.3125
s(g25
g36
tp1371
F-8.75
s(g27
g10
tp1372
F1.3125
s(g20
g40
tp1373
F0.0
s(g69
g23
tp1374
F-8.75
s(g34
g34
tp1375
F10.0
s(g10
g47
tp1376
F-8.75
s(g77
g11
tp1377
F0.875
s(g10
g56
tp1378
F-8.3125
s(g79
g4
tp1379
F-8.75
s(g115
g77
tp1380
F1.3125
s(g83
g25
tp1381
F-8.3125
s(g63
g72
tp1382
F0.0
s(g31
g88
tp1383
F0.0
s(g77
g46
tp1384
F1.3125
s(g31
g20
tp1385
F1.75
s(g72
g79
tp1386
F-8.75
s(g115
g79
tp1387
F-8.75
s(g32
g2
tp1388
F-21.875
s(g52
g7
tp1389
F-8.75
s(g63
g50
tp1390
F1.75
s(g59
g50
tp1391
F-8.3125
s(g27
g91
tp1392
F-8.75
s(g11
g22
tp1393
F1.75
s(g22
g5
tp1394
F0.0
s(g17
g8
tp1395
F0.4375
s(g25
g77
tp1396
F-8.3125
s(g8
g54
tp1397
F-8.3125
s(g13
g54
tp1398
F-8.3125
s(g5
g79
tp1399
F-8.75
s(g34
g75
tp1400
F-8.75
s(g47
g46
tp1401
F-8.75
s(g50
g59
tp1402
F-8.3125
s(g79
g50
tp1403
F-8.75
s(g34
g13
tp1404
F4.375
s(g83
g119
tp1405
F0.0
s(g38
g19
tp1406
F-8.3125
s(g91
g61
tp1407
F-8.75
s(g20
g13
tp1408
F0.0
s(g75
g10
tp1409
F-8.75
s(g31
g54
tp1410
F-8.3125
s(g115
g20
tp1411
F0.0
s(g54
g19
tp1412
F-8.3125
s(g77
g15
tp1413
F0.0
s(g46
g43
tp1414
F0.0
s(g95
g17
tp1415
F-8.3125
s(g10
g23
tp1416
F0.0
s(g77
g17
tp1417
F2.625
s(g8
g50
tp1418
F1.3125
s(g15
g17
tp1419
F0.0
s(g90
g36
tp1420
F-8.75
s(g59
g54
tp1421
F5.25
s(g52
g77
tp1422
F0.0
s(g79
g79
tp1423
F4.375
s(g27
g119
tp1424
F0.0
s(g52
g43
tp1425
F0.0
s(g88
g23
tp1426
F0.0
s(g90
g56
tp1427
F-8.3125
s(g5
g91
tp1428
F-8.75
s(g5
g25
tp1429
F-8.3125
s(g20
g36
tp1430
F-8.75
s(g95
g25
tp1431
F7.875
s(g47
g15
tp1432
F-8.75
s(g40
g119
tp1433
F0.0
s(g79
g61
tp1434
F-8.75
s(g72
g11
tp1435
F3.5
s(g13
g91
tp1436
F-8.75
s(g119
g119
tp1437
F10.0
s(g17
g43
tp1438
F0.0
s(g15
g22
tp1439
F5.6875
s(g40
g32
tp1440
F-21.875
s(g38
g52
tp1441
F-8.3125
s(g5
g72
tp1442
F0.0
s(g13
g69
tp1443
F-8.75
s(g72
g36
tp1444
F-8.75
s(g119
g7
tp1445
F-8.75
s(g50
g54
tp1446
F-8.3125
s(g75
g31
tp1447
F-8.75
s(g19
g113
tp1448
F0.0
s(g4
g32
tp1449
F-21.875
s(g2
g91
tp1450
F-8.75
s(g63
g13
tp1451
F1.75
s(g22
g43
tp1452
F0.4375
s(g17
g113
tp1453
F0.0
s(g17
g83
tp1454
F0.0
s(g59
g77
tp1455
F-8.3125
s(g79
g36
tp1456
F2.1875
s(g95
g11
tp1457
F-8.3125
s(g17
g77
tp1458
F2.625
s(g61
g83
tp1459
F2.625
s(g8
g2
tp1460
F4.8125
s(g47
g23
tp1461
F-8.75
s(g25
g15
tp1462
F-8.3125
s(g38
g113
tp1463
F-8.3125
s(g91
g28
tp1464
F-8.75
s(g5
g43
tp1465
F0.0
s(g72
g50
tp1466
F0.0
s(g36
g54
tp1467
F-8.75
s(g56
g36
tp1468
F-8.75
s(g56
g15
tp1469
F-8.3125
s(g50
g31
tp1470
F0.4375
s(g91
g77
tp1471
F-8.75
s(g95
g63
tp1472
F-8.3125
s(g72
g27
tp1473
F0.0
s(g115
g11
tp1474
F3.0625
s(g90
g47
tp1475
F-8.75
s(g20
g7
tp1476
F-8.75
s(g90
g2
tp1477
F0.0
s(g23
g31
tp1478
F0.0
s(g1
g113
tp1479
F-8.75
s(g20
g1
tp1480
F-8.75
s(g50
g56
tp1481
F-8.3125
s(g1
g17
tp1482
F-8.75
s(g7
g113
tp1483
F-8.75
s(g19
g75
tp1484
F-8.75
s(g52
g38
tp1485
F-8.3125
s(g34
g38
tp1486
F-8.3125
s(g90
g38
tp1487
F-8.3125
s(g59
g2
tp1488
F-8.3125
s(g56
g38
tp1489
F6.5625
s(g52
g50
tp1490
F0.0
s(g32
g119
tp1491
F-21.875
s(g1
g11
tp1492
F-8.75
s(g75
g2
tp1493
F-8.75
s(g83
g115
tp1494
F0.0
s(g8
g65
tp1495
F-8.3125
s(g90
g52
tp1496
F0.0
s(g65
g56
tp1497
F4.8125
s(g28
g10
tp1498
F0.0
s(g50
g27
tp1499
F0.875
s(g4
g69
tp1500
F-8.75
s(g7
g36
tp1501
F2.1875
s(g63
g95
tp1502
F-8.3125
s(g43
g2
tp1503
F0.0
s(g15
g90
tp1504
F0.4375
s(g50
g34
tp1505
F7.875
s(g77
g8
tp1506
F0.4375
s(g7
g38
tp1507
F-8.75
s(g13
g13
tp1508
F10.0
s(g72
g15
tp1509
F1.3125
s(g38
g63
tp1510
F-8.3125
s(g40
g15
tp1511
F0.0
s(g79
g17
tp1512
F-8.75
s(g54
g36
tp1513
F-8.75
s(g63
g54
tp1514
F-8.3125
s(g13
g36
tp1515
F-8.75
s(g47
g90
tp1516
F-8.75
s(g27
g27
tp1517
F10.0
s(g15
g79
tp1518
F-8.75
s(g61
g4
tp1519
F0.0
s(g113
g1
tp1520
F-8.75
s(g10
g5
tp1521
F1.75
s(g25
g38
tp1522
F6.5625
s(g75
g28
tp1523
F-8.75
s(g8
g8
tp1524
F10.0
s(g50
g20
tp1525
F0.0
s(g63
g23
tp1526
F0.0
s(g43
g36
tp1527
F-8.75
s(g25
g13
tp1528
F-8.3125
s(g38
g47
tp1529
F-8.75
s(g65
g95
tp1530
F5.25
s(g50
g32
tp1531
F-21.875
s(g40
g46
tp1532
F1.3125
s(g63
g115
tp1533
F0.0
s(g4
g1
tp1534
F-8.75
s(g83
g8
tp1535
F0.4375
s(g32
g28
tp1536
F-21.875
s(g38
g17
tp1537
F-8.3125
s(g43
g79
tp1538
F-8.75
s(g31
g113
tp1539
F0.0
s(g91
g15
tp1540
F-8.75
s(g65
g32
tp1541
F-21.875
s(g5
g1
tp1542
F-8.75
s(g95
g83
tp1543
F-8.3125
s(g38
g65
tp1544
F6.5625
s(g31
g90
tp1545
F0.0
s(g40
g1
tp1546
F-8.75
s(g79
g72
tp1547
F-8.75
s(g77
g61
tp1548
F0.0
s(g79
g54
tp1549
F-8.75
s(g15
g36
tp1550
F-8.75
s(g5
g20
tp1551
F0.0
s(g34
g52
tp1552
F0.0
s(g36
g115
tp1553
F-8.75
s(g75
g32
tp1554
F-21.875
s(g77
g19
tp1555
F0.4375
s(g83
g10
tp1556
F0.0
s(g32
g50
tp1557
F-21.875
s(g19
g91
tp1558
F-8.75
s(g23
g5
tp1559
F0.0
s(g15
g115
tp1560
F0.0
s(g56
g72
tp1561
F-8.3125
s(g28
g46
tp1562
F0.0
s(g59
g90
tp1563
F-8.3125
s(g52
g13
tp1564
F0.0
s(g27
g4
tp1565
F0.0
s(g75
g54
tp1566
F-8.75
s(g36
g7
tp1567
F2.1875
s(g115
g1
tp1568
F-8.75
s(g47
g61
tp1569
F-8.75
s(g15
g91
tp1570
F-8.75
s(g56
g20
tp1571
F-8.3125
s(g17
g17
tp1572
F10.0
s(g23
g59
tp1573
F-8.3125
s(g119
g8
tp1574
F0.4375
s(g38
g23
tp1575
F-8.3125
s(g88
g1
tp1576
F-8.75
s(g90
g19
tp1577
F0.4375
s(g119
g28
tp1578
F3.9375
s(g13
g15
tp1579
F0.875
s(g83
g1
tp1580
F-8.75
s(g13
g50
tp1581
F1.75
s(g43
g8
tp1582
F0.0
s(g88
g72
tp1583
F0.0
s(g36
g69
tp1584
F2.1875
s(g34
g1
tp1585
F-8.75
s(g72
g10
tp1586
F0.0
s(g90
g61
tp1587
F0.0
s(g52
g61
tp1588
F0.4375
s(g65
g5
tp1589
F-8.3125
s(g79
g52
tp1590
F-8.75
s(g11
g50
tp1591
F0.875
s(g54
g46
tp1592
F-8.3125
s(g46
g46
tp1593
F10.0
s(g88
g10
tp1594
F1.3125
s(g46
g22
tp1595
F1.3125
s(g10
g38
tp1596
F-8.3125
s(g1
g72
tp1597
F-8.75
s(g17
g2
tp1598
F0.0
s(g61
g25
tp1599
F-8.3125
s(g31
g1
tp1600
F-8.75
s(g50
g43
tp1601
F0.0
s(g54
g15
tp1602
F-8.3125
s(g46
g40
tp1603
F1.3125
s(g75
g4
tp1604
F-8.75
s(g52
g27
tp1605
F0.4375
s(g40
g115
tp1606
F3.0625
s(g88
g8
tp1607
F0.875
s(g25
g28
tp1608
F-8.3125
s(g46
g54
tp1609
F-8.3125
s(g31
g46
tp1610
F0.0
s(g95
g22
tp1611
F-8.3125
s(g69
g95
tp1612
F-8.75
s(g10
g113
tp1613
F0.0
s(g59
g34
tp1614
F-8.3125
s(g75
g83
tp1615
F-8.75
s(g17
g36
tp1616
F-8.75
s(g15
g83
tp1617
F0.4375
s(g1
g28
tp1618
F-8.75
s(g32
g40
tp1619
F-21.875
s(g11
g72
tp1620
F3.5
s(g1
g8
tp1621
F-8.75
s(g52
g23
tp1622
F0.875
s(g61
g31
tp1623
F7.0
s(g65
g65
tp1624
F8.75
s(g36
g2
tp1625
F-8.75
s(g95
g52
tp1626
F-8.3125
s(g69
g27
tp1627
F-8.75
s(g50
g19
tp1628
F0.0
s(g119
g25
tp1629
F-8.3125
s(g54
g5
tp1630
F-8.3125
s(g32
g19
tp1631
F-21.875
s(g13
g17
tp1632
F0.875
s(g77
g50
tp1633
F0.875
s(g13
g119
tp1634
F0.0
s(g15
g54
tp1635
F-8.3125
s(g50
g83
tp1636
F0.4375
s(g13
g59
tp1637
F-8.3125
s(g77
g119
tp1638
F0.0
s(g7
g90
tp1639
F-8.75
s(g79
g8
tp1640
F-8.75
s(g83
g56
tp1641
F-8.3125
s(g52
g59
tp1642
F-8.3125
s(g27
g115
tp1643
F4.8125
s(g69
g56
tp1644
F-8.75
s(g113
g11
tp1645
F2.625
s(g75
g19
tp1646
F-8.75
s(g13
g31
tp1647
F0.4375
s(g47
g50
tp1648
F-8.75
s(g63
g88
tp1649
F0.0
s(g79
g91
tp1650
F-8.75
s(g54
g52
tp1651
F-8.3125
s(g75
g65
tp1652
F-8.75
s(g69
g4
tp1653
F-8.75
s(g5
g63
tp1654
F7.0
s(g17
g4
tp1655
F0.0
s(g32
g36
tp1656
F-21.875
s(g25
g46
tp1657
F-8.3125
s(g59
g17
tp1658
F-8.3125
s(g65
g2
tp1659
F-8.3125
s(g69
g15
tp1660
F-8.75
s(g90
g69
tp1661
F-8.75
s(g83
g11
tp1662
F0.4375
s(g38
g115
tp1663
F-8.3125
s(g23
g83
tp1664
F0.0
s(g31
g38
tp1665
F-8.3125
s(g5
g50
tp1666
F0.0
s(g77
g72
tp1667
F0.0
s(g95
g27
tp1668
F-8.3125
s(g69
g54
tp1669
F-8.75
s(g46
g59
tp1670
F-8.3125
s(g40
g65
tp1671
F-8.3125
s(g10
g28
tp1672
F0.0
s(g22
g50
tp1673
F0.0
s(g7
g32
tp1674
F-21.875
s(g83
g63
tp1675
F0.0
s(g15
g27
tp1676
F0.875
s(g63
g69
tp1677
F-8.75
s(g56
g95
tp1678
F7.875
s(g52
g46
tp1679
F0.0
s(g28
g31
tp1680
F0.0
s(g27
g11
tp1681
F0.4375
s(g61
g61
tp1682
F10.0
s(g17
g46
tp1683
F8.3125
s(g88
g28
tp1684
F0.4375
s(g25
g1
tp1685
F-8.75
s(g47
g54
tp1686
F-8.75
s(g32
g61
tp1687
F-21.875
s(g56
g31
tp1688
F-8.3125
s(g59
g23
tp1689
F-8.3125
s(g95
g56
tp1690
F7.875
s(g47
g72
tp1691
F-8.75
s(g34
g31
tp1692
F0.0
s(g69
g22
tp1693
F-8.75
s(g40
g11
tp1694
F0.875
s(g72
g69
tp1695
F-8.75
s(g72
g119
tp1696
F0.0
s(g65
g83
tp1697
F-8.3125
s(g2
g38
tp1698
F-8.3125
s(g119
g11
tp1699
F0.0
s(g43
g47
tp1700
F-8.75
s(g7
g2
tp1701
F-8.75
s(g95
g31
tp1702
F-8.3125
s(g61
g65
tp1703
F-0.875
s(g75
g88
tp1704
F-8.75
s(g25
g75
tp1705
F-8.75
s(g79
g83
tp1706
F-8.75
s(g52
g15
tp1707
F0.0
s(g119
g91
tp1708
F-8.75
s(g40
g75
tp1709
F-8.75
s(g61
g75
tp1710
F-8.75
s(g69
g52
tp1711
F-8.75
s(g50
g38
tp1712
F-8.3125
s(g5
g23
tp1713
F0.0
s(g115
g38
tp1714
F-8.3125
s(g54
g2
tp1715
F-8.3125
s(g15
g1
tp1716
F-8.75
s(g27
g36
tp1717
F-8.75
s(g46
g32
tp1718
F-21.875
s(g1
g83
tp1719
F-8.75
s(g43
g115
tp1720
F0.4375
s(g34
g113
tp1721
F0.875
s(g83
g59
tp1722
F-8.3125
s(g34
g11
tp1723
F1.3125
s(g25
g72
tp1724
F-8.3125
s(g61
g79
tp1725
F-8.75
s(g69
g59
tp1726
F-8.75
s(g91
g23
tp1727
F-8.75
s(g72
g1
tp1728
F-8.75
s(g43
g22
tp1729
F0.4375
s(g54
g61
tp1730
F-8.3125
s(g38
g20
tp1731
F-8.3125
s(g61
g50
tp1732
F0.0
s(g36
g36
tp1733
F4.375
s(g52
g40
tp1734
F0.0
s(g72
g17
tp1735
F1.3125
s(g40
g23
tp1736
F0.0
s(g15
g5
tp1737
F0.4375
s(g90
g46
tp1738
F1.3125
s(g79
g43
tp1739
F-8.75
s(g69
g2
tp1740
F-8.75
s(g50
g25
tp1741
F-8.3125
s(g11
g1
tp1742
F-8.75
s(g75
g72
tp1743
F-8.75
s(g2
g40
tp1744
F0.0
s(g90
g54
tp1745
F-0.875
s(g56
g54
tp1746
F7.875
s(g52
g88
tp1747
F0.0
s(g88
g2
tp1748
F0.0
s(g1
g119
tp1749
F-8.75
s(g56
g47
tp1750
F-8.75
s(g65
g25
tp1751
F5.25
s(g8
g91
tp1752
F-8.75
s(g69
g115
tp1753
F-8.75
s(g50
g17
tp1754
F0.4375
s(g40
g20
tp1755
F0.0
s(g119
g65
tp1756
F-8.3125
s(g28
g79
tp1757
F-8.75
s(g32
g17
tp1758
F-21.875
s(g91
g52
tp1759
F-8.75
s(g77
g4
tp1760
F0.0
s(g7
g54
tp1761
F-8.75
s(g113
g90
tp1762
F0.875
s(g28
g17
tp1763
F0.4375
s(g72
g72
tp1764
F10.0
s(g25
g7
tp1765
F-8.75
s(g88
g13
tp1766
F0.875
s(g54
g11
tp1767
F-8.3125
s(g52
g32
tp1768
F-21.875
s(g13
g5
tp1769
F0.4375
s(g11
g115
tp1770
F3.0625
s(g28
g59
tp1771
F-8.3125
s(g69
g65
tp1772
F-8.75
s(g47
g36
tp1773
F2.1875
s(g10
g10
tp1774
F10.0
s(g22
g79
tp1775
F-8.75
s(g90
g1
tp1776
F-8.75
s(g65
g40
tp1777
F-8.3125
s(g5
g10
tp1778
F1.75
s(g25
g69
tp1779
F-8.75
s(g59
g19
tp1780
F-8.3125
s(g115
g5
tp1781
F0.4375
s(g10
g69
tp1782
F-8.75
s(g1
g36
tp1783
F2.1875
s(g69
g61
tp1784
F-8.75
s(g40
g77
tp1785
F4.8125
s(g63
g19
tp1786
F0.4375
s(g27
g72
tp1787
F0.0
s(g32
g23
tp1788
F-21.875
s(g22
g25
tp1789
F-8.3125
s(g113
g113
tp1790
F10.0
s(g91
g72
tp1791
F-8.75
s(g61
g13
tp1792
F0.0
s(g90
g40
tp1793
F1.75
s(g20
g47
tp1794
F-8.75
s(g77
g22
tp1795
F0.875
s(g115
g75
tp1796
F-8.75
s(g23
g34
tp1797
F0.4375
s(g63
g8
tp1798
F0.4375
s(g36
g50
tp1799
F-8.75
s(g79
g15
tp1800
F-8.75
s(g22
g20
tp1801
F0.0
s(g90
g13
tp1802
F0.4375
s(g69
g50
tp1803
F-8.75
s(g69
g90
tp1804
F-8.75
s(g17
g50
tp1805
F0.4375
s(g47
g79
tp1806
F2.1875
s(g28
g119
tp1807
F3.9375
s(g36
g19
tp1808
F-8.75
s(g77
g75
tp1809
F-8.75
s(g32
g88
tp1810
F-21.875
s(g113
g36
tp1811
F-8.75
s(g50
g88
tp1812
F8.3125
s(g69
g28
tp1813
F-8.75
s(g28
g77
tp1814
F0.4375
s(g91
g8
tp1815
F-8.75
s(g7
g27
tp1816
F-8.75
s(g28
g65
tp1817
F-8.3125
s(g113
g115
tp1818
F0.4375
s(g27
g8
tp1819
F0.0
s(g36
g28
tp1820
F-8.75
s(g22
g61
tp1821
F0.4375
s(g43
g1
tp1822
F-8.75
s(g54
g28
tp1823
F-8.3125
s(g32
g15
tp1824
F-21.875
s(g15
g34
tp1825
F0.875
s(g1
g79
tp1826
F2.1875
s(g23
g27
tp1827
F0.0
s(g79
g5
tp1828
F-8.75
s(g7
g40
tp1829
F-8.75
s(g65
g34
tp1830
F-8.3125
s(g38
g28
tp1831
F-8.3125
s(g90
g115
tp1832
F0.4375
s(g13
g79
tp1833
F-8.75
s(g7
g95
tp1834
F-8.75
s(g113
g2
tp1835
F3.5
s(g115
g65
tp1836
F-8.3125
s(g88
g15
tp1837
F0.0
s(g40
g5
tp1838
F0.0
s(g72
g5
tp1839
F0.0
s(g32
g56
tp1840
F-21.875
s(g11
g88
tp1841
F1.3125
s(g40
g25
tp1842
F-8.3125
s(g47
g31
tp1843
F-8.75
s(g19
g10
tp1844
F1.3125
s(g46
g119
tp1845
F0.0
s(g56
g46
tp1846
F-8.3125
s(g38
g40
tp1847
F-8.3125
s(g1
g34
tp1848
F-8.75
s(g46
g77
tp1849
F1.3125
s(g10
g40
tp1850
F1.3125
s(g10
g72
tp1851
F0.0
s(g56
g83
tp1852
F-8.3125
s(g10
g54
tp1853
F-8.3125
s(g38
g72
tp1854
F-8.3125
s(g8
g113
tp1855
F1.75
s(g56
g91
tp1856
F-8.75
s(g46
g113
tp1857
F0.0
s(g28
g25
tp1858
F-8.3125
s(g43
g63
tp1859
F0.0
s(g47
g43
tp1860
F-8.75
s(g46
g34
tp1861
F0.875
s(g75
g8
tp1862
F-8.75
s(g34
g2
tp1863
F0.0
s(g25
g23
tp1864
F-8.3125
s(g11
g79
tp1865
F-8.75
s(g69
g43
tp1866
F-8.75
s(g31
g47
tp1867
F-8.75
s(g10
g13
tp1868
F1.75
s(g50
g36
tp1869
F-8.75
s(g83
g22
tp1870
F0.0
s(g23
g7
tp1871
F-8.75
s(g19
g31
tp1872
F0.0
s(g46
g36
tp1873
F-8.75
s(g7
g69
tp1874
F2.1875
s(g7
g72
tp1875
F-8.75
s(g28
g83
tp1876
F0.0
s(g56
g59
tp1877
F5.6875
s(g54
g34
tp1878
F-8.3125
s(g27
g83
tp1879
F0.0
s(g1
g23
tp1880
F-8.75
s(g43
g38
tp1881
F-8.3125
s(g1
g4
tp1882
F-8.75
s(g4
g79
tp1883
F-8.75
s(g115
g23
tp1884
F0.0
s(g91
g2
tp1885
F-8.75
s(g59
g43
tp1886
F-8.3125
s(g69
g17
tp1887
F-8.75
s(g50
g75
tp1888
F-8.75
s(g15
g50
tp1889
F1.3125
s(g25
g65
tp1890
F5.25
s(g13
g27
tp1891
F1.3125
s(g77
g88
tp1892
F1.3125
s(g7
g25
tp1893
F-8.75
s(g13
g46
tp1894
F2.1875
s(g13
g11
tp1895
F0.4375
s(g28
g113
tp1896
F0.4375
s(g32
g27
tp1897
F-21.875
s(g34
g69
tp1898
F-8.75
s(g36
g31
tp1899
F-8.75
s(g34
g27
tp1900
F0.4375
s(g40
g83
tp1901
F0.0
s(g115
g46
tp1902
F1.3125
s(g90
g95
tp1903
F-8.3125
s(g31
g7
tp1904
F-8.75
s(g2
g83
tp1905
F0.0
s(g69
g25
tp1906
F-8.75
s(g5
g69
tp1907
F-8.75
s(g115
g2
tp1908
F0.0
s(g113
g119
tp1909
F0.0
s(g19
g34
tp1910
F0.4375
s(g32
g79
tp1911
F-21.875
s(g75
g115
tp1912
F-8.75
s(g95
g38
tp1913
F7.0
s(g47
g88
tp1914
F-8.75
s(g20
g19
tp1915
F0.0
s(g38
g91
tp1916
F-8.75
s(g11
g91
tp1917
F-8.75
s(g65
g72
tp1918
F-8.3125
s(g4
g36
tp1919
F-8.75
s(g23
g56
tp1920
F-8.3125
s(g90
g63
tp1921
F5.25
s(g119
g34
tp1922
F0.0
s(g56
g63
tp1923
F-8.3125
s(g91
g56
tp1924
F-8.75
s(g20
g38
tp1925
F-8.3125
s(g2
g13
tp1926
F0.0
s(g69
g72
tp1927
F-8.75
s(g5
g47
tp1928
F-8.75
s(g27
g38
tp1929
F-8.3125
s(g22
g40
tp1930
F0.0
s(g4
g43
tp1931
F0.0
s(g91
g113
tp1932
F-8.75
s(g32
g95
tp1933
F-21.875
s(g119
g56
tp1934
F-8.3125
s(g5
g88
tp1935
F0.0
s(g72
g40
tp1936
F0.0
s(g17
g28
tp1937
F0.4375
s(g79
g77
tp1938
F-8.75
s(g72
g2
tp1939
F2.625
s(g2
g43
tp1940
F0.0
s(g69
g38
tp1941
F-8.75
s(g4
g83
tp1942
F0.0
s(g52
g47
tp1943
F-8.75
s(g19
g28
tp1944
F0.4375
s(g22
g88
tp1945
F0.0
s(g61
g11
tp1946
F0.875
s(g7
g7
tp1947
F4.375
s(g91
g11
tp1948
F-8.75
s(g83
g65
tp1949
F-8.3125
s(g10
g19
tp1950
F1.3125
s(g22
g15
tp1951
F5.6875
s(g113
g28
tp1952
F0.4375
s(g47
g38
tp1953
F-8.75
s(g52
g75
tp1954
F-8.75
s(g5
g22
tp1955
F0.0
s(g59
g28
tp1956
F-8.3125
s(g23
g115
tp1957
F0.0
s(g88
g32
tp1958
F-21.875
s(g4
g63
tp1959
F0.0
s(g13
g22
tp1960
F0.4375
s(g90
g59
tp1961
F-8.3125
s(g11
g77
tp1962
F0.875
s(g23
g32
tp1963
F-21.875
s(g2
g54
tp1964
F-8.3125
s(g83
g91
tp1965
F-8.75
s(g56
g19
tp1966
F-8.3125
s(g11
g63
tp1967
F0.4375
s(g115
g32
tp1968
F-21.875
s(g91
g36
tp1969
F-8.75
s(g75
g50
tp1970
F-8.75
s(g56
g25
tp1971
F7.875
s(g17
g63
tp1972
F0.4375
s(g52
g72
tp1973
F0.0
s(g13
g34
tp1974
F4.375
s(g72
g65
tp1975
F-8.3125
s(g27
g88
tp1976
F0.875
s(g115
g54
tp1977
F-8.3125
s(g46
g19
tp1978
F0.875
s(g79
g22
tp1979
F-8.75
s(g75
g1
tp1980
F2.1875
s(g72
g75
tp1981
F-8.75
s(g2
g22
tp1982
F5.25
s(g115
g40
tp1983
F3.0625
s(g90
g23
tp1984
F0.875
s(g17
g61
tp1985
F0.0
s(g63
g65
tp1986
F-8.3125
s(g59
g47
tp1987
F-8.75
s(g75
g36
tp1988
F2.1875
s(g90
g34
tp1989
F1.75
s(g34
g119
tp1990
F0.0
s(g38
g61
tp1991
F-8.3125
s(g1
g32
tp1992
F-21.875
s(g4
g28
tp1993
F0.0
s(g11
g8
tp1994
F7.0
s(g2
g52
tp1995
F0.0
s(g50
g1
tp1996
F-8.75
s(g61
g88
tp1997
F0.4375
s(g11
g28
tp1998
F0.0
s(g59
g25
tp1999
F5.6875
s(g40
g28
tp2000
F0.0
s(g15
g10
tp2001
F0.4375
s(g28
g2
tp2002
F0.4375
s(g20
g75
tp2003
F-8.75
s(g95
g46
tp2004
F-8.3125
s(g23
g1
tp2005
F-8.75
s(g31
g22
tp2006
F0.0
s(g19
g43
tp2007
F0.0
s(g75
g15
tp2008
F-8.75
s(g7
g61
tp2009
F-8.75
s(g13
g47
tp2010
F-8.75
s(g72
g113
tp2011
F1.3125
s(g2
g4
tp2012
F0.0
s(g2
g59
tp2013
F-8.3125
s(g15
g69
tp2014
F-8.75
s(g27
g34
tp2015
F0.4375
s(g59
g79
tp2016
F-8.75
s(g34
g10
tp2017
F3.0625
s(g50
g10
tp2018
F0.875
s(g75
g79
tp2019
F2.1875
s(g25
g91
tp2020
F-8.75
s(g113
g43
tp2021
F0.0
s(g8
g36
tp2022
F-8.75
s(g77
g20
tp2023
F0.0
s(g65
g79
tp2024
F-8.75
s(g59
g31
tp2025
F-8.3125
s(g69
g19
tp2026
F-8.75
s(g25
g56
tp2027
F7.875
s(g7
g65
tp2028
F-8.75
s(g2
g5
tp2029
F0.0
s(g50
g69
tp2030
F-8.75
s(g32
g90
tp2031
F-21.875
s(g77
g40
tp2032
F4.8125
s(g28
g27
tp2033
F0.0
s(g50
g8
tp2034
F1.3125
s(g75
g13
tp2035
F-8.75
s(g54
g65
tp2036
F6.125
s(g54
g119
tp2037
F-8.3125
s(g13
g65
tp2038
F-8.3125
s(g31
g28
tp2039
F0.0
s(g13
g10
tp2040
F1.75
s(g11
g19
tp2041
F1.3125
s(g19
g83
tp2042
F0.0
s(g8
g40
tp2043
F0.0
s(g50
g7
tp2044
F-8.75
s(g43
g72
tp2045
F0.0
s(g34
g50
tp2046
F7.875
s(g119
g72
tp2047
F0.0
s(g43
g65
tp2048
F-2.625
s(g52
g36
tp2049
F-8.75
s(g5
g5
tp2050
F10.0
s(g113
g10
tp2051
F0.0
s(g119
g83
tp2052
F0.0
s(g38
g77
tp2053
F-8.3125
s(g20
g90
tp2054
F0.0
s(g88
g19
tp2055
F0.0
s(g83
g2
tp2056
F0.0
s(g63
g75
tp2057
F-8.75
s(g4
g31
tp2058
F0.0
s(g46
g28
tp2059
F0.0
s(g17
g23
tp2060
F0.0
s(g90
g4
tp2061
F0.0
s(g115
g19
tp2062
F7.875
s(g63
g4
tp2063
F0.0
s(g50
g77
tp2064
F0.875
s(g40
g31
tp2065
F0.0
s(g36
g88
tp2066
F-8.75
s(g17
g75
tp2067
F-8.75
s(g77
g113
tp2068
F1.75
s(g65
g7
tp2069
F-8.75
s(g31
g27
tp2070
F0.0
s(g40
g95
tp2071
F-8.3125
s(g28
g11
tp2072
F0.0
s(g13
g113
tp2073
F0.4375
s(g36
g75
tp2074
F2.1875
s(g7
g5
tp2075
F-8.75
s(g7
g59
tp2076
F-8.75
s(g15
g75
tp2077
F-8.75
s(g36
g83
tp2078
F-8.75
s(g91
g4
tp2079
F-2.1875
s(g83
g79
tp2080
F-8.75
s(g23
g15
tp2081
F0.875
s(g113
g19
tp2082
F0.0
s(g36
g23
tp2083
F-8.75
s(g54
g23
tp2084
F-8.3125
s(g32
g72
tp2085
F-21.875
s(g115
g31
tp2086
F0.0
s(g23
g17
tp2087
F0.0
s(g56
g7
tp2088
F-8.75
s(g79
g10
tp2089
F-8.75
s(g4
g10
tp2090
F0.0
s(g7
g4
tp2091
F-8.75
s(g7
g52
tp2092
F-8.75
s(g95
g32
tp2093
F-21.875
s(g10
g119
tp2094
F0.0
s(g119
g40
tp2095
F0.0
s(g83
g31
tp2096
F6.125
s(g8
g72
tp2097
F9.1875
s(g22
g28
tp2098
F0.0
s(g40
g10
tp2099
F1.3125
s(g11
g56
tp2100
F-8.3125
s(g46
g72
tp2101
F0.0
s(g32
g25
tp2102
F-21.875
s(g34
g32
tp2103
F-21.875
s(g22
g56
tp2104
F-8.3125
s(g50
g72
tp2105
F0.0
s(g59
g27
tp2106
F-8.3125
s(g40
g56
tp2107
F-8.3125
s(g54
g113
tp2108
F-8.3125
s(g19
g5
tp2109
F0.875
s(g25
g59
tp2110
F5.6875
s(g46
g11
tp2111
F0.0
s(g56
g77
tp2112
F-8.3125
s(g17
g90
tp2113
F0.4375
s(g72
g13
tp2114
F0.0
s(g38
g4
tp2115
F0.0
s(g50
g28
tp2116
F1.3125
s(g10
g15
tp2117
F0.4375
s(g113
g34
tp2118
F0.875
s(g46
g25
tp2119
F-8.3125
s(g46
g91
tp2120
F-8.75
s(g1
g52
tp2121
F-8.75
s(g38
g15
tp2122
F-8.3125
s(g20
g2
tp2123
F0.0
s(g7
g13
tp2124
F-8.75
s(g79
g32
tp2125
F-21.875
s(g28
g56
tp2126
F-8.3125
s(g119
g54
tp2127
F-8.3125
s(g119
g50
tp2128
F0.4375
s(g15
g63
tp2129
F0.4375
s(g88
g40
tp2130
F0.0
s(g11
g54
tp2131
F-8.3125
s(g83
g47
tp2132
F-8.75
s(g31
g83
tp2133
F6.125
s(g11
g32
tp2134
F-21.875
s(g95
g91
tp2135
F-8.75
s(g88
g38
tp2136
F-8.3125
s(g38
g79
tp2137
F-8.75
s(g65
g52
tp2138
F-8.3125
s(g7
g15
tp2139
F-8.75
s(g4
g56
tp2140
F0.0
s(g17
g65
tp2141
F-8.3125
s(g63
g61
tp2142
F0.4375
s(g32
g22
tp2143
F-21.875
s(g43
g54
tp2144
F-8.3125
s(g50
g63
tp2145
F1.75
s(g40
g22
tp2146
F0.0
s(g115
g28
tp2147
F0.4375
s(g75
g5
tp2148
F-8.75
s(g69
g7
tp2149
F2.1875
s(g28
g91
tp2150
F-8.75
s(g72
g32
tp2151
F-21.875
s(g56
g40
tp2152
F-8.3125
s(g8
g23
tp2153
F0.875
s(g7
g56
tp2154
F-8.75
s(g8
g88
tp2155
F0.875
s(g32
g54
tp2156
F-21.875
s(g34
g17
tp2157
F0.875
s(g115
g72
tp2158
F0.875
s(g61
g32
tp2159
F-21.875
s(g25
g63
tp2160
F-8.3125
s(g79
g40
tp2161
F-8.75
s(g50
g11
tp2162
F0.875
s(g69
g69
tp2163
F4.375
s(g27
g75
tp2164
F-8.75
s(g91
g34
tp2165
F-8.75
s(g40
g52
tp2166
F0.0
s(g25
g50
tp2167
F-8.3125
s(g47
g56
tp2168
F-8.75
s(g95
g54
tp2169
F6.125
s(g40
g91
tp2170
F-8.75
s(g19
g32
tp2171
F-21.875
s(g119
g61
tp2172
F0.0
s(g22
g52
tp2173
F0.0
s(g63
g34
tp2174
F0.4375
s(g91
g59
tp2175
F-8.75
s(g65
g11
tp2176
F-8.3125
s(g23
g25
tp2177
F-8.3125
s(g38
g13
tp2178
F-8.3125
s(g69
g47
tp2179
F2.1875
s(g1
g56
tp2180
F-8.75
s(g20
g54
tp2181
F-8.3125
s(g61
g90
tp2182
F0.0
s(g83
g95
tp2183
F-8.3125
s(g27
g54
tp2184
F-8.3125
s(g17
g1
tp2185
F-8.75
s(g27
g61
tp2186
F0.0
s(g34
g65
tp2187
F-8.3125
s(g28
g7
tp2188
F-8.75
s(g8
g19
tp2189
F0.4375
s(g50
g13
tp2190
F1.75
s(g22
g75
tp2191
F-8.75
s(g7
g1
tp2192
F2.1875
s(g5
g38
tp2193
F-8.3125
s(g69
g1
tp2194
F2.1875
s(g31
g115
tp2195
F0.0
s(g47
g95
tp2196
F-8.75
s(g19
g23
tp2197
F0.0
s(g5
g75
tp2198
F-8.75
s(g5
g54
tp2199
F-8.3125
s(g63
g59
tp2200
F-8.3125
s(g91
g119
tp2201
F-8.75
s(g50
g50
tp2202
F10.0
s(g23
g61
tp2203
F0.0
s(g10
g115
tp2204
F4.375
s(g22
g72
tp2205
F3.9375
s(g113
g23
tp2206
F0.4375
s(g119
g27
tp2207
F0.0
s(g32
g113
tp2208
F-21.875
s(g7
g47
tp2209
F2.1875
s(g56
g1
tp2210
F-8.75
s(g69
g40
tp2211
F-8.75
s(g1
g95
tp2212
F-8.75
s(g23
g19
tp2213
F0.0
s(g43
g20
tp2214
F4.375
s(g77
g91
tp2215
F-8.75
s(g72
g34
tp2216
F6.125
s(g17
g69
tp2217
F-8.75
s(g7
g119
tp2218
F-8.75
s(g34
g15
tp2219
F0.875
s(g79
g56
tp2220
F-8.75
s(g11
g46
tp2221
F0.0
s(g36
g32
tp2222
F-21.875
s(g61
g69
tp2223
F-8.75
s(g83
g43
tp2224
F1.75
s(g47
g75
tp2225
F2.1875
s(g95
g1
tp2226
F-8.75
s(g5
g2
tp2227
F0.0
s(g25
g115
tp2228
F-8.3125
s(g56
g56
tp2229
F8.75
s(g113
g59
tp2230
F-8.3125
s(g27
g50
tp2231
F0.875
s(g61
g115
tp2232
F0.0
s(g88
g34
tp2233
F3.5
s(g36
g56
tp2234
F-8.75
s(g46
g115
tp2235
F1.3125
s(g25
g32
tp2236
F-21.875
s(g95
g95
tp2237
F8.75
s(g115
g4
tp2238
F0.0
s(g90
g28
tp2239
F0.4375
s(g38
g119
tp2240
F-8.3125
s(g15
g15
tp2241
F10.0
s(g115
g83
tp2242
F0.0
s(g91
g20
tp2243
F-8.75
s(g46
g5
tp2244
F3.9375
s(g113
g52
tp2245
F0.0
s(g20
g95
tp2246
F-8.3125
s(g61
g2
tp2247
F0.0
s(g52
g69
tp2248
F-8.75
s(g88
g20
tp2249
F0.0
s(g8
g5
tp2250
F0.0
s(g72
g31
tp2251
F0.0
s(g63
g10
tp2252
F3.5
s(g46
g2
tp2253
F0.0
s(g4
g23
tp2254
F0.0
s(g90
g65
tp2255
F-8.3125
s(g11
g4
tp2256
F0.0
s(g36
g8
tp2257
F-8.75
s(g8
g25
tp2258
F-8.3125
s(g11
g23
tp2259
F0.4375
s(g59
g56
tp2260
F5.6875
s(g52
g8
tp2261
F0.0
s(g91
g13
tp2262
F-8.75
s(g31
g34
tp2263
F0.0
s(g95
g77
tp2264
F-8.3125
s(g65
g47
tp2265
F-8.75
s(g40
g90
tp2266
F1.75
s(g25
g79
tp2267
F-8.75
s(g5
g113
tp2268
F0.0
s(g2
g8
tp2269
F4.8125
s(g40
g113
tp2270
F0.0
s(g36
g10
tp2271
F-8.75
s(g54
g40
tp2272
F-8.3125
s(g43
g59
tp2273
F-8.3125
s(g47
g2
tp2274
F-8.75
s(g22
g69
tp2275
F-8.75
s(g34
g5
tp2276
F1.75
s(g88
g79
tp2277
F-8.75
s(g50
g5
tp2278
F0.0
s(g4
g95
tp2279
F0.0
s(g2
g79
tp2280
F-8.75
s(g8
g119
tp2281
F0.4375
s(g79
g20
tp2282
F-8.75
s(g83
g52
tp2283
F0.875
s(g119
g36
tp2284
F-8.75
s(g25
g25
tp2285
F8.75
s(g2
g10
tp2286
F0.0
s(g1
g47
tp2287
F2.1875
s(g10
g83
tp2288
F0.0
s(g8
g32
tp2289
F-21.875
s(g19
g8
tp2290
F0.4375
s(g56
g115
tp2291
F-8.3125
s(g25
g20
tp2292
F-8.3125
s(g59
g83
tp2293
F-8.3125
s(g56
g52
tp2294
F-8.3125
s(g31
g23
tp2295
F0.0
s(g113
g15
tp2296
F1.3125
s(g11
g75
tp2297
F-8.75
s(g88
g65
tp2298
F-8.3125
s(g91
g83
tp2299
F-8.75
s(g5
g83
tp2300
F0.0
s(g47
g65
tp2301
F-8.75
s(g119
g5
tp2302
F0.0
s(g22
g2
tp2303
F5.25
s(g91
g115
tp2304
F-8.75
s(g119
g2
tp2305
F0.0
s(g23
g54
tp2306
F-8.3125
s(g90
g31
tp2307
F0.0
s(g34
g88
tp2308
F3.5
s(g65
g28
tp2309
F-8.3125
s(g119
g15
tp2310
F0.0
s(g20
g25
tp2311
F-8.3125
s(g1
g61
tp2312
F-8.75
s(g91
g32
tp2313
F-21.875
s(g65
g8
tp2314
F-8.3125
s(g25
g34
tp2315
F-8.3125
s(g113
g5
tp2316
F0.0
s(g1
g65
tp2317
F-8.75
s(g113
g56
tp2318
F-8.3125
s(g22
g32
tp2319
F-21.875
s(g88
g115
tp2320
F0.0
s(g65
g63
tp2321
F-8.3125
s(g5
g13
tp2322
F0.4375
s(g27
g90
tp2323
F0.875
s(g8
g83
tp2324
F0.4375
s(g36
g59
tp2325
F-8.75
s(g1
g7
tp2326
F2.1875
s(g90
g8
tp2327
F0.875
s(g59
g52
tp2328
F-8.3125
s(g52
g20
tp2329
F0.4375
s(g115
g115
tp2330
F10.0
s(g23
g69
tp2331
F-8.75
s(g19
g77
tp2332
F0.4375
s(g63
g40
tp2333
F0.0
s(g50
g46
tp2334
F0.4375
s(g1
g90
tp2335
F-8.75
s(g13
g7
tp2336
F-8.75
s(g31
g17
tp2337
F0.0
s(g88
g43
tp2338
F0.0
s(g54
g43
tp2339
F-8.3125
s(g7
g10
tp2340
F-8.75
s(g1
g15
tp2341
F-8.75
s(g115
g88
tp2342
F0.0
s(g54
g79
tp2343
F-8.75
s(g90
g72
tp2344
F0.0
s(g79
g25
tp2345
F-8.75
s(g91
g40
tp2346
F-8.75
s(g31
g11
tp2347
F0.4375
s(g23
g72
tp2348
F0.0
s(g113
g75
tp2349
F-8.75
s(g27
g40
tp2350
F1.3125
s(g4
g54
tp2351
F0.0
s(g43
g31
tp2352
F4.8125
s.