(dp0
S' '
p1
g1
sS'A'
p2
g2
sS'C'
p3
g3
sS'B'
p4
g4
sS'E'
p5
g5
sS'D'
p6
g6
sS'G'
p7
g7
sS'F'
p8
g8
sS'I'
p9
g9
sS'H'
p10
g10
sS'K'
p11
g11
sS'J'
p12
g12
sS'M'
p13
g13
sS'L'
p14
g14
sS'O'
p15
g15
sS'N'
p16
g16
sS'Q'
p17
g17
sS'P'
p18
g18
sS'S'
p19
g19
sS'R'
p20
g20
sS'U'
p21
g21
sS'T'
p22
g22
sS'W'
p23
g23
sS'V'
p24
g24
sS'Y'
p25
g25
sS'X'
p26
g26
sS'Z'
p27
g27
sS'a'
p28
g28
sS'c'
p29
g29
sS'b'
p30
g30
sS'e'
p31
g31
sS'd'
p32
g32
sS'g'
p33
g33
sS'f'
p34
g34
sS'i'
p35
g35
sS'h'
p36
g36
sS'k'
p37
g37
sS'j'
p38
g38
sS'm'
p39
g39
sS'l'
p40
g40
sS'o'
p41
g41
sS'n'
p42
g42
sS'q'
p43
g43
sS'p'
p44
g44
sS's'
p45
g45
sS'r'
p46
g46
sS'u'
p47
g47
sS't'
p48
g48
sS'w'
p49
g49
sS'v'
p50
g50
sS'y'
p51
g51
sS'x'
p52
g52
sS'z'
p53
g53
s.