(dp0
(S'J'
p1
S'Q'
p2
tp3
I-1
s(S'x'
p4
S'P'
p5
tp6
I-1
s(S'U'
p7
S'j'
p8
tp9
I-1
s(S'X'
p10
S'Z'
p11
tp12
I-1
s(S'K'
p13
S'u'
p14
tp15
I-1
s(S'W'
p16
g13
tp17
I-1
s(S'z'
p18
S'h'
p19
tp20
I-1
s(S'V'
p21
S'y'
p22
tp23
I-1
s(S'd'
p24
S'q'
p25
tp26
I-1
s(g4
S'g'
p27
tp28
I-1
s(g25
S'C'
p29
tp30
I-1
s(S'S'
p31
S'p'
p32
tp33
I-1
s(S'k'
p34
S'N'
p35
tp36
I-1
s(g11
g16
tp37
I-1
s(g19
S'E'
p38
tp39
I-1
s(S'c'
p40
S'n'
p41
tp42
I-1
s(g38
g40
tp43
I-1
s(g5
S'e'
p44
tp45
I-1
s(g18
S' '
p46
tp47
I-1
s(g18
S'O'
p48
tp49
I-1
s(S'r'
p50
g32
tp51
I-1
s(g38
g48
tp52
I-1
s(g1
S'w'
p53
tp54
I-1
s(g18
g2
tp55
I-1
s(g13
S'A'
p56
tp57
I-1
s(g29
S'Y'
p58
tp59
I-1
s(g27
g32
tp60
I-1
s(g48
S'i'
p61
tp62
I-1
s(S'f'
p63
g40
tp64
I-1
s(S'I'
p65
g4
tp66
I-1
s(g25
g38
tp67
I-1
s(S'l'
p68
g35
tp69
I-1
s(g10
S'm'
p70
tp71
I-1
s(g58
g10
tp72
I-1
s(g48
S'M'
p73
tp74
I-1
s(S'T'
p75
g44
tp76
I-1
s(g56
S'o'
p77
tp78
I-1
s(g4
g75
tp79
I-1
s(g13
g29
tp80
I-1
s(g41
g58
tp81
I-1
s(g50
g53
tp82
I-1
s(g73
g40
tp83
I-1
s(g19
g53
tp84
I-1
s(g1
g21
tp85
I-1
s(S'H'
p86
S'B'
p87
tp88
I-1
s(g13
g77
tp89
I-1
s(S'D'
p90
g53
tp91
I-1
s(g77
g14
tp92
I-1
s(g46
g35
tp93
I-1
s(g70
g19
tp94
I-1
s(g21
g44
tp95
I-1
s(g25
S'G'
p96
tp97
I-1
s(g31
g68
tp98
I-1
s(g1
g8
tp99
I-1
s(g13
g22
tp100
I-1
s(g5
g34
tp101
I-1
s(g19
g65
tp102
I-1
s(g1
g24
tp103
I-1
s(S'b'
p104
g75
tp105
I-1
s(S'v'
p106
g87
tp107
I-1
s(g2
S'a'
p108
tp109
I-1
s(g50
g104
tp110
I-1
s(S'L'
p111
g61
tp112
I-1
s(g65
g2
tp113
I-1
s(g7
g32
tp114
I-1
s(S'F'
p115
g21
tp116
I-1
s(g14
g73
tp117
I-1
s(g18
g7
tp118
I-1
s(g108
g35
tp119
I-1
s(S's'
p120
g90
tp121
I-1
s(g27
g53
tp122
I-1
s(g29
g7
tp123
I-1
s(g27
S't'
p124
tp125
I-1
s(g13
g70
tp126
I-1
s(g32
g29
tp127
I-1
s(g16
g106
tp128
I-1
s(g68
g1
tp129
I-1
s(g10
g25
tp130
I-1
s(g1
g65
tp131
I-1
s(g124
g46
tp132
I-1
s(g40
g111
tp133
I-1
s(g41
g13
tp134
I-1
s(g27
g21
tp135
I-1
s(g7
g50
tp136
I-1
s(g4
g41
tp137
I-1
s(g46
g1
tp138
I-1
s(g108
g53
tp139
I-1
s(g41
g53
tp140
I-1
s(g56
g58
tp141
I-1
s(g29
g19
tp142
I-1
s(g21
g61
tp143
I-1
s(g4
g58
tp144
I-1
s(g96
g90
tp145
I-1
s(g24
g22
tp146
I-1
s(g120
g27
tp147
I-1
s(g21
g108
tp148
I-1
s(g31
g19
tp149
I-1
s(g68
g86
tp150
I-1
s(g115
g29
tp151
I-1
s(g48
g29
tp152
I-1
s(g2
g44
tp153
I-1
s(g63
g73
tp154
I-1
s(g86
g75
tp155
I-1
s(g73
g70
tp156
I-1
s(g11
g50
tp157
I-1
s(g38
g111
tp158
I-1
s(g115
g73
tp159
I-1
s(g86
g1
tp160
I-1
s(g46
g86
tp161
I-1
s(g1
g77
tp162
I-1
s(g34
g108
tp163
I-1
s(g104
g58
tp164
I-1
s(g86
g108
tp165
I-1
s(g35
g22
tp166
I-1
s(g61
g40
tp167
I-1
s(g46
g68
tp168
I-1
s(g75
g21
tp169
I-1
s(g34
g73
tp170
I-1
s(g32
g14
tp171
I-1
s(g16
g77
tp172
I-1
s(g75
g27
tp173
I-1
s(g87
g120
tp174
I-1
s(g14
g86
tp175
I-1
s(g38
g104
tp176
I-1
s(g58
g46
tp177
I-1
s(g7
g44
tp178
I-1
s(g16
g22
tp179
I-1
s(g53
g58
tp180
I-1
s(g11
g124
tp181
I-1
s(g8
g104
tp182
I-1
s(g34
g4
tp183
I-1
s(g44
g2
tp184
I-1
s(g115
g25
tp185
I-1
s(g41
g115
tp186
I-1
s(g48
g75
tp187
I-1
s(g11
g41
tp188
I-1
s(g56
g86
tp189
I-1
s(g1
g35
tp190
I-1
s(g29
g24
tp191
I-1
s(g50
g7
tp192
I-1
s(g21
g31
tp193
I-1
s(g41
g5
tp194
I-1
s(g18
g106
tp195
I-1
s(g73
g11
tp196
I-1
s(g4
g120
tp197
I-1
s(g16
g70
tp198
I-1
s(g31
g24
tp199
I-1
s(g87
g14
tp200
I-1
s(g68
g90
tp201
I-1
s(g5
g40
tp202
I-1
s(g96
g4
tp203
I-1
s(g73
g14
tp204
I-1
s(g96
g124
tp205
I-1
s(g77
g87
tp206
I-1
s(g106
g31
tp207
I-1
s(g7
g4
tp208
I-1
s(g108
g115
tp209
I-1
s(g29
g53
tp210
I-1
s(g40
g73
tp211
I-1
s(g8
g48
tp212
I-1
s(g106
g4
tp213
I-1
s(g35
g16
tp214
I-1
s(g16
g14
tp215
I-1
s(g11
g106
tp216
I-1
s(g10
g22
tp217
I-1
s(g19
g104
tp218
I-1
s(g27
g86
tp219
I-1
s(g90
g58
tp220
I-1
s(g1
g56
tp221
I-1
s(g70
g120
tp222
I-1
s(g46
g44
tp223
I-1
s(g8
g124
tp224
I-1
s(g7
g18
tp225
I-1
s(g4
g106
tp226
I-1
s(g96
S'R'
p227
tp228
I-1
s(g8
g63
tp229
I-1
s(g124
g41
tp230
I-1
s(g50
g96
tp231
I-1
s(g108
g10
tp232
I-1
s(g4
g108
tp233
I-1
s(g61
g61
tp234
I1
s(g46
g63
tp235
I-1
s(g75
g5
tp236
I-1
s(g73
g21
tp237
I-1
s(g32
g11
tp238
I-1
s(g87
g22
tp239
I-1
s(g38
g31
tp240
I-1
s(g46
g2
tp241
I-1
s(g48
g18
tp242
I-1
s(g77
g34
tp243
I-1
s(g1
g27
tp244
I-1
s(g65
g48
tp245
I-1
s(g108
g11
tp246
I-1
s(g63
g75
tp247
I-1
s(g120
g4
tp248
I-1
s(g7
g56
tp249
I-1
s(g65
g19
tp250
I-1
s(g75
g48
tp251
I-1
s(g19
g32
tp252
I-1
s(g32
g70
tp253
I-1
s(g75
g46
tp254
I-1
s(g13
g104
tp255
I-1
s(g19
g63
tp256
I-1
s(g41
g73
tp257
I-1
s(g63
g104
tp258
I-1
s(g63
g111
tp259
I-1
s(g96
g120
tp260
I-1
s(g75
g18
tp261
I-1
s(g48
g4
tp262
I-1
s(g53
g2
tp263
I-1
s(g50
g22
tp264
I-1
s(g4
g18
tp265
I-1
s(g96
g21
tp266
I-1
s(g8
g11
tp267
I-1
s(g44
g58
tp268
I-1
s(g1
g115
tp269
I-1
s(g4
g44
tp270
I-1
s(g90
g27
tp271
I-1
s(g7
g29
tp272
I-1
s(g70
g10
tp273
I-1
s(g41
g8
tp274
I-1
s(g8
g46
tp275
I-1
s(g29
g70
tp276
I-1
s(g7
g77
tp277
I-1
s(g104
g90
tp278
I-1
s(g8
g25
tp279
I-1
s(g106
g227
tp280
I-1
s(g2
g2
tp281
I1
s(g63
g56
tp282
I-1
s(g73
g108
tp283
I-1
s(g65
g56
tp284
I-1
s(g115
g115
tp285
I1
s(g96
g31
tp286
I-1
s(g24
g124
tp287
I-1
s(g96
g53
tp288
I-1
s(g106
g70
tp289
I-1
s(g58
g44
tp290
I-1
s(g111
g75
tp291
I-1
s(g27
g24
tp292
I-1
s(g32
g120
tp293
I-1
s(g13
g32
tp294
I-1
s(g53
g86
tp295
I-1
s(g16
g44
tp296
I-1
s(g18
g1
tp297
I-1
s(g1
g22
tp298
I-1
s(g70
g34
tp299
I-1
s(g50
g34
tp300
I-1
s(g4
g19
tp301
I-1
s(g58
g25
tp302
I-1
s(g27
g115
tp303
I-1
s(g41
g56
tp304
I-1
s(g75
g8
tp305
I-1
s(g48
g58
tp306
I-1
s(g108
g5
tp307
I-1
s(g73
g35
tp308
I-1
s(g32
g227
tp309
I-1
s(g31
g10
tp310
I-1
s(g38
g5
tp311
I-1
s(g77
g96
tp312
I-1
s(g41
g7
tp313
I-1
s(g5
g73
tp314
I-1
s(g2
g7
tp315
I-1
s(g48
g87
tp316
I-1
s(g27
g73
tp317
I-1
s(g11
g87
tp318
I-1
s(g35
g115
tp319
I-1
s(g35
g70
tp320
I-1
s(g50
g61
tp321
I-1
s(g86
g18
tp322
I-1
s(g65
g111
tp323
I-1
s(g34
g2
tp324
I-1
s(g108
g227
tp325
I-1
s(g104
g65
tp326
I-1
s(g40
g56
tp327
I-1
s(g35
g111
tp328
I-1
s(g35
g65
tp329
I-1
s(g7
g65
tp330
I-1
s(g14
g35
tp331
I-1
s(g32
g44
tp332
I-1
s(g77
g2
tp333
I-1
s(g70
g14
tp334
I-1
s(g14
g10
tp335
I-1
s(g38
g227
tp336
I-1
s(g7
g14
tp337
I-1
s(g44
g16
tp338
I-1
s(g11
g90
tp339
I-1
s(g41
g90
tp340
I-1
s(g34
g19
tp341
I-1
s(g87
g24
tp342
I-1
s(g11
g108
tp343
I-1
s(g115
g108
tp344
I-1
s(g96
g61
tp345
I-1
s(g56
g10
tp346
I-1
s(g53
g41
tp347
I-1
s(g4
g70
tp348
I-1
s(g46
g38
tp349
I-1
s(g7
g13
tp350
I-1
s(g124
g44
tp351
I-1
s(g227
g86
tp352
I-1
s(g70
g5
tp353
I-1
s(g31
g75
tp354
I-1
s(g5
g11
tp355
I-1
s(g7
g53
tp356
I-1
s(g29
g120
tp357
I-1
s(g8
g61
tp358
I-1
s(g24
g5
tp359
I-1
s(g18
g34
tp360
I-1
s(g34
g77
tp361
I-1
s(g32
g16
tp362
I-1
s(g22
g29
tp363
I-1
s(g61
g115
tp364
I-1
s(g24
g53
tp365
I-1
s(g11
g40
tp366
I-1
s(g63
g86
tp367
I-1
s(g106
g44
tp368
I-1
s(g120
g68
tp369
I-1
s(g32
g34
tp370
I-1
s(g22
g27
tp371
I-1
s(g106
g86
tp372
I-1
s(g25
g108
tp373
I-1
s(g10
g65
tp374
I-1
s(g61
g24
tp375
I-1
s(g90
g65
tp376
I-1
s(g1
g25
tp377
I-1
s(g104
g35
tp378
I-1
s(g77
g5
tp379
I-1
s(g4
g32
tp380
I-1
s(g27
g96
tp381
I-1
s(g87
g19
tp382
I-1
s(g75
g90
tp383
I-1
s(g96
g70
tp384
I-1
s(g40
g90
tp385
I-1
s(g111
g1
tp386
I-1
s(g44
g227
tp387
I-1
s(g16
g7
tp388
I-1
s(g32
g1
tp389
I-1
s(g48
g63
tp390
I-1
s(g25
g40
tp391
I-1
s(g31
g5
tp392
I-1
s(g29
g108
tp393
I-1
s(g27
g10
tp394
I-1
s(g77
g48
tp395
I-1
s(g38
g29
tp396
I-1
s(g5
g38
tp397
I-1
s(g21
g111
tp398
I-1
s(g18
g77
tp399
I-1
s(g63
g11
tp400
I-1
s(g50
g5
tp401
I-1
s(g87
g8
tp402
I-1
s(g75
g87
tp403
I-1
s(g18
g25
tp404
I-1
s(g106
g108
tp405
I-1
s(g111
g86
tp406
I-1
s(g35
g24
tp407
I-1
s(g48
g65
tp408
I-1
s(g75
g58
tp409
I-1
s(g7
g2
tp410
I-1
s(g25
g44
tp411
I-1
s(g16
g27
tp412
I-1
s(g70
g70
tp413
I1
s(g104
g40
tp414
I-1
s(g10
g73
tp415
I-1
s(g56
g8
tp416
I-1
s(g58
g120
tp417
I-1
s(g4
g124
tp418
I-1
s(g16
g21
tp419
I-1
s(g13
g40
tp420
I-1
s(g19
g108
tp421
I-1
s(g41
g22
tp422
I-1
s(g19
g16
tp423
I-1
s(g53
g77
tp424
I-1
s(g1
g106
tp425
I-1
s(g53
g63
tp426
I-1
s(g58
g40
tp427
I-1
s(g90
g16
tp428
I-1
s(g7
g31
tp429
I-1
s(g70
g86
tp430
I-1
s(g73
g87
tp431
I-1
s(g25
g5
tp432
I-1
s(g25
g27
tp433
I-1
s(g31
g111
tp434
I-1
s(g44
g86
tp435
I-1
s(g5
g13
tp436
I-1
s(g61
g8
tp437
I-1
s(g24
g31
tp438
I-1
s(g104
g124
tp439
I-1
s(g77
g11
tp440
I-1
s(g24
g10
tp441
I-1
s(g2
g56
tp442
I-1
s(g50
g87
tp443
I-1
s(g14
g24
tp444
I-1
s(g90
g13
tp445
I-1
s(g115
g10
tp446
I-1
s(g32
g48
tp447
I-1
s(g22
g13
tp448
I-1
s(g87
g41
tp449
I-1
s(g13
g90
tp450
I-1
s(g18
g14
tp451
I-1
s(g108
g41
tp452
I-1
s(g53
g70
tp453
I-1
s(g120
g24
tp454
I-1
s(g32
g40
tp455
I-1
s(g38
g70
tp456
I-1
s(g1
g7
tp457
I-1
s(g44
g4
tp458
I-1
s(g25
g227
tp459
I-1
s(g10
g2
tp460
I-1
s(g86
g38
tp461
I-1
s(g56
g41
tp462
I-1
s(g1
g61
tp463
I-1
s(g77
g10
tp464
I-1
s(g24
g115
tp465
I-1
s(g2
g29
tp466
I-1
s(g41
g34
tp467
I-1
s(g27
g106
tp468
I-1
s(g48
g77
tp469
I-1
s(g46
g8
tp470
I-1
s(g63
g53
tp471
I-1
s(g111
g73
tp472
I-1
s(g29
g86
tp473
I-1
s(g53
g18
tp474
I-1
s(g115
g18
tp475
I-1
s(g4
g22
tp476
I-1
s(g44
g11
tp477
I-1
s(g227
g1
tp478
I-1
s(g32
g87
tp479
I-1
s(g25
g75
tp480
I-1
s(g10
g46
tp481
I-1
s(g31
g86
tp482
I-1
s(g86
g58
tp483
I-1
s(g50
g124
tp484
I-1
s(g8
g2
tp485
I-1
s(g86
g48
tp486
I-1
s(g2
g38
tp487
I-1
s(g63
g70
tp488
I-1
s(g86
g124
tp489
I-1
s(g11
g227
tp490
I-1
s(g86
g8
tp491
I-1
s(g8
g16
tp492
I-1
s(g34
g56
tp493
I-1
s(g111
g13
tp494
I-1
s(g27
g61
tp495
I-1
s(g104
g22
tp496
I-1
s(g40
g2
tp497
I-1
s(g58
g61
tp498
I-1
s(g35
g58
tp499
I-1
s(g61
g29
tp500
I-1
s(g11
g104
tp501
I-1
s(g7
g58
tp502
I-1
s(g1
g90
tp503
I-1
s(g108
g31
tp504
I-1
s(g25
g21
tp505
I-1
s(g87
g31
tp506
I-1
s(g70
g44
tp507
I-1
s(g38
g87
tp508
I-1
s(g46
g46
tp509
I1
s(g70
g18
tp510
I-1
s(g11
g75
tp511
I-1
s(g8
g87
tp512
I-1
s(g34
g10
tp513
I-1
s(g44
g25
tp514
I-1
s(g29
g106
tp515
I-1
s(g90
g4
tp516
I-1
s(g115
g2
tp517
I-1
s(g41
g63
tp518
I-1
s(g53
g27
tp519
I-1
s(g1
g41
tp520
I-1
s(g29
g90
tp521
I-1
s(g5
g77
tp522
I-1
s(g58
g34
tp523
I-1
s(g21
g120
tp524
I-1
s(g41
g32
tp525
I-1
s(g124
g14
tp526
I-1
s(g73
g18
tp527
I-1
s(g108
g7
tp528
I-1
s(g50
g63
tp529
I-1
s(g31
g90
tp530
I-1
s(g87
g7
tp531
I-1
s(g115
g68
tp532
I-1
s(g34
g120
tp533
I-1
s(g5
g29
tp534
I-1
s(g96
g10
tp535
I-1
s(g227
g87
tp536
I-1
s(g77
g104
tp537
I-1
s(g25
g58
tp538
I-1
s(g10
g50
tp539
I-1
s(g32
g96
tp540
I-1
s(g63
g35
tp541
I-1
s(g11
g120
tp542
I-1
s(g108
g63
tp543
I-1
s(g106
g14
tp544
I-1
s(g53
g44
tp545
I-1
s(g40
g70
tp546
I-1
s(g90
g227
tp547
I-1
s(g1
g73
tp548
I-1
s(g106
g10
tp549
I-1
s(g120
g58
tp550
I-1
s(g10
g58
tp551
I-1
s(g19
g87
tp552
I-1
s(g227
g90
tp553
I-1
s(g1
g108
tp554
I-1
s(g70
g31
tp555
I-1
s(g24
g35
tp556
I-1
s(g8
g75
tp557
I-1
s(g19
g70
tp558
I-1
s(g48
g53
tp559
I-1
s(g40
g115
tp560
I-1
s(g8
g115
tp561
I-1
s(g124
g35
tp562
I-1
s(g29
g50
tp563
I-1
s(g108
g4
tp564
I-1
s(g40
g75
tp565
I-1
s(g2
g40
tp566
I-1
s(g53
g50
tp567
I-1
s(g22
g87
tp568
I-1
s(g61
g65
tp569
I-1
s(g75
g32
tp570
I-1
s(g73
g106
tp571
I-1
s(g32
g18
tp572
I-1
s(g70
g77
tp573
I-1
s(g87
g58
tp574
I-1
s(g8
g34
tp575
I-1
s(g46
g25
tp576
I-1
s(g106
g5
tp577
I-1
s(g2
g106
tp578
I-1
s(g48
g11
tp579
I-1
s(g13
g11
tp580
I-1
s(g75
g73
tp581
I-1
s(g73
g75
tp582
I-1
s(g65
g77
tp583
I-1
s(g108
g18
tp584
I-1
s(g63
g124
tp585
I-1
s(g106
g25
tp586
I-1
s(g227
g96
tp587
I-1
s(g56
g68
tp588
I-1
s(g96
g34
tp589
I-1
s(g35
g124
tp590
I-1
s(g22
g90
tp591
I-1
s(g7
g108
tp592
I-1
s(g120
g16
tp593
I-1
s(g19
g5
tp594
I-1
s(g19
g115
tp595
I-1
s(g41
g70
tp596
I-1
s(g56
g18
tp597
I-1
s(g56
g27
tp598
I-1
s(g48
g10
tp599
I-1
s(g70
g50
tp600
I-1
s(g50
g58
tp601
I-1
s(g22
g58
tp602
I-1
s(g5
g4
tp603
I-1
s(g44
g31
tp604
I-1
s(g2
g22
tp605
I-1
s(g111
g56
tp606
I-1
s(g5
g41
tp607
I-1
s(g227
g65
tp608
I-1
s(g1
g63
tp609
I-1
s(g115
g41
tp610
I-1
s(g90
g96
tp611
I-1
s(g7
g40
tp612
I-1
s(g44
g35
tp613
I-1
s(g227
g111
tp614
I-1
s(g18
g73
tp615
I-1
s(g65
g227
tp616
I-1
s(g5
g87
tp617
I-1
s(g29
g73
tp618
I-1
s(g75
g96
tp619
I-1
s(g77
g19
tp620
I-1
s(g104
g24
tp621
I-1
s(g77
g8
tp622
I-1
s(g16
g29
tp623
I-1
s(g63
g108
tp624
I-1
s(g14
g124
tp625
I-1
s(g31
g22
tp626
I-1
s(g65
g108
tp627
I-1
s(g38
g25
tp628
I-1
s(g90
g41
tp629
I-1
s(g73
g5
tp630
I-1
s(g96
g16
tp631
I-1
s(g106
g73
tp632
I-1
s(g111
g124
tp633
I-1
s(g61
g4
tp634
I-1
s(g1
g38
tp635
I-1
s(g34
g50
tp636
I-1
s(g58
g104
tp637
I-1
s(g18
g8
tp638
I-1
s(g124
g8
tp639
I-1
s(g70
g13
tp640
I-1
s(g50
g13
tp641
I-1
s(g16
g56
tp642
I-1
s(g27
g63
tp643
I-1
s(g104
g46
tp644
I-1
s(g21
g86
tp645
I-1
s(g108
g32
tp646
I-1
s(g56
g2
tp647
I-1
s(g115
g8
tp648
I-1
s(g73
g41
tp649
I-1
s(g32
g50
tp650
I-1
s(g8
g40
tp651
I-1
s(g35
g108
tp652
I-1
s(g77
g27
tp653
I-1
s(g227
g35
tp654
I-1
s(g14
g63
tp655
I-1
s(g27
g70
tp656
I-1
s(g14
g32
tp657
I-1
s(g31
g14
tp658
I-1
s(g35
g73
tp659
I-1
s(g65
g68
tp660
I-1
s(g16
g46
tp661
I-1
s(g108
g50
tp662
I-1
s(g73
g96
tp663
I-1
s(g104
g61
tp664
I-1
s(g40
g108
tp665
I-1
s(g58
g22
tp666
I-1
s(g22
g111
tp667
I-1
s(g7
g61
tp668
I-1
s(g11
g8
tp669
I-1
s(g70
g7
tp670
I-1
s(g120
g73
tp671
I-1
s(g11
g70
tp672
I-1
s(g38
g75
tp673
I-1
s(g44
g53
tp674
I-1
s(g70
g8
tp675
I-1
s(g22
g108
tp676
I-1
s(g34
g86
tp677
I-1
s(g87
g90
tp678
I-1
s(g11
g56
tp679
I-1
s(g68
g27
tp680
I-1
s(g86
g227
tp681
I-1
s(g115
g56
tp682
I-1
s(g96
g65
tp683
I-1
s(g227
g2
tp684
I-1
s(g14
g40
tp685
I-1
s(g53
g35
tp686
I-1
s(g86
g21
tp687
I-1
s(g7
g34
tp688
I-1
s(g124
g38
tp689
I-1
s(g111
g44
tp690
I-1
s(g34
g40
tp691
I-1
s(g11
g77
tp692
I-1
s(g29
g31
tp693
I-1
s(g77
g50
tp694
I-1
s(g24
g32
tp695
I-1
s(g40
g46
tp696
I-1
s(g31
g25
tp697
I-1
s(g34
g48
tp698
I-1
s(g32
g53
tp699
I-1
s(g22
g40
tp700
I-1
s(g11
g29
tp701
I-1
s(g73
g86
tp702
I-1
s(g63
g19
tp703
I-1
s(g106
g38
tp704
I-1
s(g227
g31
tp705
I-1
s(g115
g227
tp706
I-1
s(g96
g8
tp707
I-1
s(g50
g77
tp708
I-1
s(g18
g5
tp709
I-1
s(g56
g24
tp710
I-1
s(g58
g8
tp711
I-1
s(g21
g4
tp712
I-1
s(g61
g90
tp713
I-1
s(g86
g65
tp714
I-1
s(g70
g29
tp715
I-1
s(g77
g32
tp716
I-1
s(g27
g27
tp717
I1
s(g58
g24
tp718
I-1
s(g40
g21
tp719
I-1
s(g87
g86
tp720
I-1
s(g75
g24
tp721
I-1
s(g32
g21
tp722
I-1
s(g96
g73
tp723
I-1
s(g40
g24
tp724
I-1
s(g227
g7
tp725
I-1
s(g111
g8
tp726
I-1
s(g16
g10
tp727
I-1
s(g44
g50
tp728
I-1
s(g46
g90
tp729
I-1
s(g18
g58
tp730
I-1
s(g32
g8
tp731
I-1
s(g48
g115
tp732
I-1
s(g29
g56
tp733
I-1
s(g27
g4
tp734
I-1
s(g58
g68
tp735
I-1
s(g77
g77
tp736
I1
s(g227
g21
tp737
I-1
s(g2
g63
tp738
I-1
s(g65
g120
tp739
I-1
s(g56
g46
tp740
I-1
s(g86
g104
tp741
I-1
s(g46
g24
tp742
I-1
s(g31
g70
tp743
I-1
s(g61
g16
tp744
I-1
s(g87
g1
tp745
I-1
s(g75
g104
tp746
I-1
s(g106
g56
tp747
I-1
s(g86
g24
tp748
I-1
s(g50
g108
tp749
I-1
s(g111
g19
tp750
I-1
s(g35
g90
tp751
I-1
s(g96
g41
tp752
I-1
s(g75
g22
tp753
I-1
s(g48
g25
tp754
I-1
s(g18
g75
tp755
I-1
s(g70
g73
tp756
I-1
s(g120
g38
tp757
I-1
s(g56
g1
tp758
I-1
s(g227
g10
tp759
I-1
s(g41
g227
tp760
I-1
s(g70
g104
tp761
I-1
s(g19
g56
tp762
I-1
s(g2
g61
tp763
I-1
s(g63
g58
tp764
I-1
s(g53
g48
tp765
I-1
s(g53
g115
tp766
I-1
s(g58
g29
tp767
I-1
s(g7
g120
tp768
I-1
s(g73
g104
tp769
I-1
s(g25
g32
tp770
I-1
s(g65
g87
tp771
I-1
s(g44
g19
tp772
I-1
s(g58
g75
tp773
I-1
s(g61
g1
tp774
I-1
s(g24
g120
tp775
I-1
s(g227
g11
tp776
I-1
s(g40
g13
tp777
I-1
s(g77
g18
tp778
I-1
s(g24
g4
tp779
I-1
s(g16
g31
tp780
I-1
s(g14
g90
tp781
I-1
s(g31
g61
tp782
I-1
s(g32
g77
tp783
I-1
s(g22
g34
tp784
I-1
s(g38
g108
tp785
I-1
s(g87
g35
tp786
I-1
s(g13
g24
tp787
I-1
s(g10
g14
tp788
I-1
s(g53
g73
tp789
I-1
s(g58
g124
tp790
I-1
s(g38
g73
tp791
I-1
s(g1
g14
tp792
I-1
s(g25
g50
tp793
I-1
s(g34
g104
tp794
I-1
s(g120
g56
tp795
I-1
s(g58
g50
tp796
I-1
s(g63
g14
tp797
I-1
s(g56
g35
tp798
I-1
s(g124
g18
tp799
I-1
s(g77
g4
tp800
I-1
s(g24
g63
tp801
I-1
s(g16
g2
tp802
I-1
s(g38
g4
tp803
I-1
s(g32
g10
tp804
I-1
s(g48
g48
tp805
I1
s(g104
g5
tp806
I-1
s(g32
g35
tp807
I-1
s(g111
g70
tp808
I-1
s(g16
g61
tp809
I-1
s(g2
g27
tp810
I-1
s(g53
g11
tp811
I-1
s(g115
g11
tp812
I-1
s(g22
g11
tp813
I-1
s(g44
g18
tp814
I-1
s(g34
g22
tp815
I-1
s(g32
g104
tp816
I-1
s(g25
g124
tp817
I-1
s(g13
g21
tp818
I-1
s(g86
g22
tp819
I-1
s(g35
g25
tp820
I-1
s(g77
g53
tp821
I-1
s(g14
g106
tp822
I-1
s(g86
g77
tp823
I-1
s(g31
g44
tp824
I-1
s(g38
g18
tp825
I-1
s(g104
g227
tp826
I-1
s(g111
g34
tp827
I-1
s(g40
g25
tp828
I-1
s(g58
g65
tp829
I-1
s(g7
g22
tp830
I-1
s(g108
g111
tp831
I-1
s(g108
g120
tp832
I-1
s(g25
g106
tp833
I-1
s(g5
g46
tp834
I-1
s(g21
g73
tp835
I-1
s(g70
g38
tp836
I-1
s(g2
g48
tp837
I-1
s(g70
g11
tp838
I-1
s(g124
g61
tp839
I-1
s(g29
g34
tp840
I-1
s(g29
g21
tp841
I-1
s(g90
g10
tp842
I-1
s(g86
g5
tp843
I-1
s(g53
g96
tp844
I-1
s(g14
g120
tp845
I-1
s(g18
g29
tp846
I-1
s(g5
g48
tp847
I-1
s(g56
g50
tp848
I-1
s(g86
g115
tp849
I-1
s(g44
g63
tp850
I-1
s(g63
g46
tp851
I-1
s(g50
g115
tp852
I-1
s(g34
g31
tp853
I-1
s(g90
g14
tp854
I-1
s(g227
g104
tp855
I-1
s(g25
g22
tp856
I-1
s(g31
g108
tp857
I-1
s(g19
g18
tp858
I-1
s(g32
g27
tp859
I-1
s(g63
g41
tp860
I-1
s(g13
g2
tp861
I-1
s(g11
g31
tp862
I-1
s(g106
g7
tp863
I-1
s(g53
g38
tp864
I-1
s(g44
g7
tp865
I-1
s(g1
g70
tp866
I-1
s(g24
g87
tp867
I-1
s(g115
g14
tp868
I-1
s(g56
g124
tp869
I-1
s(g11
g65
tp870
I-1
s(g104
g16
tp871
I-1
s(g120
g22
tp872
I-1
s(g58
g18
tp873
I-1
s(g61
g108
tp874
I-1
s(g75
g29
tp875
I-1
s(g227
g24
tp876
I-1
s(g24
g41
tp877
I-1
s(g87
g25
tp878
I-1
s(g32
g5
tp879
I-1
s(g19
g73
tp880
I-1
s(g48
g16
tp881
I-1
s(g40
g63
tp882
I-1
s(g38
g34
tp883
I-1
s(g46
g58
tp884
I-1
s(g41
g24
tp885
I-1
s(g29
g227
tp886
I-1
s(g32
g115
tp887
I-1
s(g40
g124
tp888
I-1
s(g53
g227
tp889
I-1
s(g2
g86
tp890
I-1
s(g22
g104
tp891
I-1
s(g50
g4
tp892
I-1
s(g120
g227
tp893
I-1
s(g31
g46
tp894
I-1
s(g21
g58
tp895
I-1
s(g29
g115
tp896
I-1
s(g27
g19
tp897
I-1
s(g75
g56
tp898
I-1
s(g90
g19
tp899
I-1
s(g2
g21
tp900
I-1
s(g1
g104
tp901
I-1
s(g77
g227
tp902
I-1
s(g21
g90
tp903
I-1
s(g13
g18
tp904
I-1
s(g35
g19
tp905
I-1
s(g75
g70
tp906
I-1
s(g73
g124
tp907
I-1
s(g8
g32
tp908
I-1
s(g106
g2
tp909
I-1
s(g227
g27
tp910
I-1
s(g13
g13
tp911
I1
s(g27
g46
tp912
I-1
s(g35
g75
tp913
I-1
s(g41
g108
tp914
I-1
s(g108
g90
tp915
I-1
s(g29
g75
tp916
I-1
s(g7
g27
tp917
I-1
s(g65
g18
tp918
I-1
s(g56
g11
tp919
I-1
s(g70
g227
tp920
I-1
s(g86
g31
tp921
I-1
s(g22
g22
tp922
I1
s(g5
g10
tp923
I-1
s(g24
g46
tp924
I-1
s(g2
g58
tp925
I-1
s(g27
g2
tp926
I-1
s(g111
g108
tp927
I-1
s(g5
g35
tp928
I-1
s(g227
g61
tp929
I-1
s(g65
g58
tp930
I-1
s(g115
g35
tp931
I-1
s(g44
g41
tp932
I-1
s(g18
g70
tp933
I-1
s(g65
g50
tp934
I-1
s(g40
g32
tp935
I-1
s(g13
g86
tp936
I-1
s(g90
g104
tp937
I-1
s(g16
g40
tp938
I-1
s(g87
g53
tp939
I-1
s(g14
g75
tp940
I-1
s(g31
g58
tp941
I-1
s(g38
g2
tp942
I-1
s(g46
g31
tp943
I-1
s(g90
g35
tp944
I-1
s(g73
g32
tp945
I-1
s(g41
g31
tp946
I-1
s(g27
g35
tp947
I-1
s(g11
g18
tp948
I-1
s(g61
g10
tp949
I-1
s(g24
g38
tp950
I-1
s(g1
g44
tp951
I-1
s(g16
g68
tp952
I-1
s(g24
g1
tp953
I-1
s(g19
g40
tp954
I-1
s(g34
g227
tp955
I-1
s(g2
g18
tp956
I-1
s(g58
g87
tp957
I-1
s(g124
g1
tp958
I-1
s(g5
g25
tp959
I-1
s(g65
g38
tp960
I-1
s(g16
g108
tp961
I-1
s(g68
g53
tp962
I-1
s(g38
g19
tp963
I-1
s(g32
g86
tp964
I-1
s(g22
g115
tp965
I-1
s(g21
g19
tp966
I-1
s(g63
g38
tp967
I-1
s(g27
g7
tp968
I-1
s(g35
g34
tp969
I-1
s(g115
g1
tp970
I-1
s(g120
g1
tp971
I-1
s(g227
g227
tp972
I1
s(g34
g61
tp973
I-1
s(g8
g29
tp974
I-1
s(g35
g56
tp975
I-1
s(g61
g34
tp976
I-1
s(g8
g65
tp977
I-1
s(g14
g115
tp978
I-1
s(g11
g19
tp979
I-1
s(g14
g5
tp980
I-1
s(g31
g7
tp981
I-1
s(g53
g124
tp982
I-1
s(g22
g86
tp983
I-1
s(g104
g87
tp984
I-1
s(g27
g13
tp985
I-1
s(g73
g27
tp986
I-1
s(g58
g58
tp987
I1
s(g22
g68
tp988
I-1
s(g115
g61
tp989
I-1
s(g41
g35
tp990
I-1
s(g111
g21
tp991
I-1
s(g120
g70
tp992
I-1
s(g41
g10
tp993
I-1
s(g11
g73
tp994
I-1
s(g11
g53
tp995
I-1
s(g70
g1
tp996
I-1
s(g21
g11
tp997
I-1
s(g96
g32
tp998
I-1
s(g124
g22
tp999
I-1
s(g90
g86
tp1000
I-1
s(g21
g24
tp1001
I-1
s(g65
g21
tp1002
I-1
s(g227
g25
tp1003
I-1
s(g14
g29
tp1004
I-1
s(g2
g1
tp1005
I-1
s(g86
g106
tp1006
I-1
s(g120
g115
tp1007
I-1
s(g40
g38
tp1008
I-1
s(g34
g29
tp1009
I-1
s(g90
g44
tp1010
I-1
s(g11
g48
tp1011
I-1
s(g108
g48
tp1012
I-1
s(g68
g25
tp1013
I-1
s(g31
g2
tp1014
I-1
s(g16
g115
tp1015
I-1
s(g21
g14
tp1016
I-1
s(g56
g61
tp1017
I-1
s(g73
g19
tp1018
I-1
s(g27
g48
tp1019
I-1
s(g111
g53
tp1020
I-1
s(g227
g120
tp1021
I-1
s(g19
g14
tp1022
I-1
s(g73
g29
tp1023
I-1
s(g96
g1
tp1024
I-1
s(g24
g73
tp1025
I-1
s(g124
g106
tp1026
I-1
s(g50
g48
tp1027
I-1
s(g115
g44
tp1028
I-1
s(g18
g32
tp1029
I-1
s(g56
g90
tp1030
I-1
s(g104
g96
tp1031
I-1
s(g58
g1
tp1032
I-1
s(g75
g10
tp1033
I-1
s(g5
g61
tp1034
I-1
s(g13
g58
tp1035
I-1
s(g44
g90
tp1036
I-1
s(g29
g61
tp1037
I-1
s(g21
g21
tp1038
I1
s(g63
g31
tp1039
I-1
s(g40
g106
tp1040
I-1
s(g32
g106
tp1041
I-1
s(g227
g14
tp1042
I-1
s(g18
g16
tp1043
I-1
s(g16
g4
tp1044
I-1
s(g87
g104
tp1045
I-1
s(g18
g22
tp1046
I-1
s(g27
g16
tp1047
I-1
s(g13
g73
tp1048
I-1
s(g38
g106
tp1049
I-1
s(g58
g111
tp1050
I-1
s(g227
g106
tp1051
I-1
s(g35
g41
tp1052
I-1
s(g2
g115
tp1053
I-1
s(g68
g70
tp1054
I-1
s(g31
g73
tp1055
I-1
s(g35
g4
tp1056
I-1
s(g22
g5
tp1057
I-1
s(g46
g16
tp1058
I-1
s(g50
g56
tp1059
I-1
s(g19
g22
tp1060
I-1
s(g96
g35
tp1061
I-1
s(g56
g22
tp1062
I-1
s(g19
g77
tp1063
I-1
s(g111
g58
tp1064
I-1
s(g18
g124
tp1065
I-1
s(g21
g65
tp1066
I-1
s(g120
g44
tp1067
I-1
s(g227
g4
tp1068
I-1
s(g115
g32
tp1069
I-1
s(g41
g50
tp1070
I-1
s(g68
g34
tp1071
I-1
s(g29
g44
tp1072
I-1
s(g70
g87
tp1073
I-1
s(g21
g227
tp1074
I-1
s(g61
g104
tp1075
I-1
s(g48
g40
tp1076
I-1
s(g104
g111
tp1077
I-1
s(g2
g65
tp1078
I-1
s(g63
g22
tp1079
I-1
s(g27
g56
tp1080
I-1
s(g115
g70
tp1081
I-1
s(g65
g65
tp1082
I1
s(g87
g63
tp1083
I-1
s(g96
g77
tp1084
I-1
s(g65
g104
tp1085
I-1
s(g111
g111
tp1086
I1
s(g104
g41
tp1087
I-1
s(g90
g70
tp1088
I-1
s(g227
g18
tp1089
I-1
s(g40
g34
tp1090
I-1
s(g108
g96
tp1091
I-1
s(g41
g96
tp1092
I-1
s(g16
g120
tp1093
I-1
s(g31
g65
tp1094
I-1
s(g38
g56
tp1095
I-1
s(g50
g120
tp1096
I-1
s(g44
g14
tp1097
I-1
s(g75
g111
tp1098
I-1
s(g46
g227
tp1099
I-1
s(g106
g27
tp1100
I-1
s(g53
g34
tp1101
I-1
s(g34
g87
tp1102
I-1
s(g29
g32
tp1103
I-1
s(g120
g108
tp1104
I-1
s(g58
g227
tp1105
I-1
s(g124
g11
tp1106
I-1
s(g108
g58
tp1107
I-1
s(g16
g25
tp1108
I-1
s(g44
g111
tp1109
I-1
s(g73
g7
tp1110
I-1
s(g38
g10
tp1111
I-1
s(g32
g4
tp1112
I-1
s(g104
g32
tp1113
I-1
s(g8
g70
tp1114
I-1
s(g32
g41
tp1115
I-1
s(g27
g38
tp1116
I-1
s(g11
g46
tp1117
I-1
s(g2
g111
tp1118
I-1
s(g22
g18
tp1119
I-1
s(g46
g5
tp1120
I-1
s(g34
g58
tp1121
I-1
s(g53
g61
tp1122
I-1
s(g13
g106
tp1123
I-1
s(g35
g2
tp1124
I-1
s(g124
g77
tp1125
I-1
s(g14
g21
tp1126
I-1
s(g48
g31
tp1127
I-1
s(g48
g24
tp1128
I-1
s(g11
g4
tp1129
I-1
s(g50
g44
tp1130
I-1
s(g31
g38
tp1131
I-1
s(g38
g11
tp1132
I-1
s(g41
g46
tp1133
I-1
s(g16
g227
tp1134
I-1
s(g18
g115
tp1135
I-1
s(g34
g124
tp1136
I-1
s(g104
g50
tp1137
I-1
s(g4
g29
tp1138
I-1
s(g41
g111
tp1139
I-1
s(g87
g68
tp1140
I-1
s(g106
g8
tp1141
I-1
s(g16
g111
tp1142
I-1
s(g108
g68
tp1143
I-1
s(g96
g108
tp1144
I-1
s(g75
g53
tp1145
I-1
s(g5
g68
tp1146
I-1
s(g124
g70
tp1147
I-1
s(g61
g96
tp1148
I-1
s(g58
g41
tp1149
I-1
s(g124
g65
tp1150
I-1
s(g29
g13
tp1151
I-1
s(g86
g13
tp1152
I-1
s(g77
g13
tp1153
I-1
s(g86
g32
tp1154
I-1
s(g65
g115
tp1155
I-1
s(g14
g31
tp1156
I-1
s(g18
g40
tp1157
I-1
s(g86
g63
tp1158
I-1
s(g31
g53
tp1159
I-1
s(g111
g48
tp1160
I-1
s(g10
g24
tp1161
I-1
s(g40
g7
tp1162
I-1
s(g4
g115
tp1163
I-1
s(g90
g7
tp1164
I-1
s(g53
g31
tp1165
I-1
s(g96
g24
tp1166
I-1
s(g19
g24
tp1167
I-1
s(g68
g108
tp1168
I-1
s(g31
g56
tp1169
I-1
s(g19
g11
tp1170
I-1
s(g61
g68
tp1171
I-1
s(g13
g25
tp1172
I-1
s(g120
g48
tp1173
I-1
s(g124
g115
tp1174
I-1
s(g29
g18
tp1175
I-1
s(g106
g63
tp1176
I-1
s(g24
g104
tp1177
I-1
s(g115
g7
tp1178
I-1
s(g96
g44
tp1179
I-1
s(g53
g40
tp1180
I-1
s(g56
g75
tp1181
I-1
s(g104
g53
tp1182
I-1
s(g111
g87
tp1183
I-1
s(g58
g11
tp1184
I-1
s(g61
g56
tp1185
I-1
s(g75
g40
tp1186
I-1
s(g75
g68
tp1187
I-1
s(g77
g46
tp1188
I-1
s(g108
g2
tp1189
I-1
s(g87
g2
tp1190
I-1
s(g32
g32
tp1191
I1
s(g38
g13
tp1192
I-1
s(g46
g22
tp1193
I-1
s(g29
g96
tp1194
I-1
s(g8
g44
tp1195
I-1
s(g96
g111
tp1196
I-1
s(g32
g63
tp1197
I-1
s(g13
g227
tp1198
I-1
s(g63
g227
tp1199
I-1
s(g50
g10
tp1200
I-1
s(g120
g50
tp1201
I-1
s(g31
g120
tp1202
I-1
s(g10
g40
tp1203
I-1
s(g53
g108
tp1204
I-1
s(g38
g63
tp1205
I-1
s(g4
g1
tp1206
I-1
s(g75
g108
tp1207
I-1
s(g19
g19
tp1208
I1
s(g48
g68
tp1209
I-1
s(g18
g111
tp1210
I-1
s(g56
g34
tp1211
I-1
s(g35
g86
tp1212
I-1
s(g120
g13
tp1213
I-1
s(g4
g13
tp1214
I-1
s(g8
g5
tp1215
I-1
s(g13
g34
tp1216
I-1
s(g75
g1
tp1217
I-1
s(g40
g1
tp1218
I-1
s(g108
g24
tp1219
I-1
s(g73
g2
tp1220
I-1
s(g5
g24
tp1221
I-1
s(g2
g19
tp1222
I-1
s(g25
g86
tp1223
I-1
s(g10
g19
tp1224
I-1
s(g124
g24
tp1225
I-1
s(g13
g46
tp1226
I-1
s(g63
g18
tp1227
I-1
s(g27
g25
tp1228
I-1
s(g35
g63
tp1229
I-1
s(g14
g68
tp1230
I-1
s(g2
g31
tp1231
I-1
s(g65
g22
tp1232
I-1
s(g90
g25
tp1233
I-1
s(g13
g111
tp1234
I-1
s(g31
g77
tp1235
I-1
s(g10
g27
tp1236
I-1
s(g16
g86
tp1237
I-1
s(g10
g68
tp1238
I-1
s(g35
g68
tp1239
I-1
s(g61
g32
tp1240
I-1
s(g13
g19
tp1241
I-1
s(g90
g87
tp1242
I-1
s(g25
g1
tp1243
I-1
s(g13
g16
tp1244
I-1
s(g87
g16
tp1245
I-1
s(g29
g27
tp1246
I-1
s(g18
g227
tp1247
I-1
s(g124
g104
tp1248
I-1
s(g46
g120
tp1249
I-1
s(g96
g29
tp1250
I-1
s(g4
g48
tp1251
I-1
s(g41
g120
tp1252
I-1
s(g44
g29
tp1253
I-1
s(g58
g14
tp1254
I-1
s(g27
g41
tp1255
I-1
s(g61
g44
tp1256
I-1
s(g24
g44
tp1257
I-1
s(g24
g8
tp1258
I-1
s(g19
g29
tp1259
I-1
s(g106
g53
tp1260
I-1
s(g32
g75
tp1261
I-1
s(g7
g70
tp1262
I-1
s(g14
g61
tp1263
I-1
s(g5
g2
tp1264
I-1
s(g25
g111
tp1265
I-1
s(g68
g16
tp1266
I-1
s(g58
g56
tp1267
I-1
s(g38
g86
tp1268
I-1
s(g32
g19
tp1269
I-1
s(g22
g63
tp1270
I-1
s(g41
g2
tp1271
I-1
s(g63
g44
tp1272
I-1
s(g27
g14
tp1273
I-1
s(g48
g14
tp1274
I-1
s(g7
g25
tp1275
I-1
s(g120
g8
tp1276
I-1
s(g31
g34
tp1277
I-1
s(g10
g34
tp1278
I-1
s(g34
g65
tp1279
I-1
s(g111
g29
tp1280
I-1
s(g10
g32
tp1281
I-1
s(g4
g227
tp1282
I-1
s(g61
g13
tp1283
I-1
s(g5
g63
tp1284
I-1
s(g16
g8
tp1285
I-1
s(g25
g35
tp1286
I-1
s(g13
g120
tp1287
I-1
s(g56
g40
tp1288
I-1
s(g53
g75
tp1289
I-1
s(g22
g19
tp1290
I-1
s(g34
g24
tp1291
I-1
s(g104
g104
tp1292
I1
s(g120
g29
tp1293
I-1
s(g8
g86
tp1294
I-1
s(g106
g18
tp1295
I-1
s(g115
g65
tp1296
I-1
s(g41
g41
tp1297
I1
s(g73
g65
tp1298
I-1
s(g13
g27
tp1299
I-1
s(g61
g106
tp1300
I-1
s(g41
g4
tp1301
I-1
s(g50
g41
tp1302
I-1
s(g21
g18
tp1303
I-1
s(g96
g5
tp1304
I-1
s(g124
g58
tp1305
I-1
s(g25
g2
tp1306
I-1
s(g65
g106
tp1307
I-1
s(g63
g115
tp1308
I-1
s(g120
g63
tp1309
I-1
s(g50
g2
tp1310
I-1
s(g31
g27
tp1311
I-1
s(g10
g77
tp1312
I-1
s(g10
g124
tp1313
I-1
s(g44
g46
tp1314
I-1
s(g40
g44
tp1315
I-1
s(g90
g38
tp1316
I-1
s(g13
g38
tp1317
I-1
s(g77
g90
tp1318
I-1
s(g108
g77
tp1319
I-1
s(g18
g10
tp1320
I-1
s(g70
g41
tp1321
I-1
s(g68
g2
tp1322
I-1
s(g21
g48
tp1323
I-1
s(g16
g63
tp1324
I-1
s(g24
g56
tp1325
I-1
s(g56
g65
tp1326
I-1
s(g4
g16
tp1327
I-1
s(g25
g31
tp1328
I-1
s(g27
g77
tp1329
I-1
s(g44
g13
tp1330
I-1
s(g19
g7
tp1331
I-1
s(g75
g16
tp1332
I-1
s(g24
g70
tp1333
I-1
s(g124
g21
tp1334
I-1
s(g106
g106
tp1335
I1
s(g5
g14
tp1336
I-1
s(g115
g38
tp1337
I-1
s(g104
g27
tp1338
I-1
s(g32
g111
tp1339
I-1
s(g46
g7
tp1340
I-1
s(g18
g56
tp1341
I-1
s(g75
g4
tp1342
I-1
s(g5
g65
tp1343
I-1
s(g111
g65
tp1344
I-1
s(g44
g24
tp1345
I-1
s(g29
g65
tp1346
I-1
s(g21
g106
tp1347
I-1
s(g63
g120
tp1348
I-1
s(g115
g58
tp1349
I-1
s(g2
g41
tp1350
I-1
s(g25
g7
tp1351
I-1
s(g90
g34
tp1352
I-1
s(g115
g4
tp1353
I-1
s(g18
g53
tp1354
I-1
s(g61
g77
tp1355
I-1
s(g75
g7
tp1356
I-1
s(g87
g87
tp1357
I1
s(g31
g40
tp1358
I-1
s(g10
g120
tp1359
I-1
s(g4
g90
tp1360
I-1
s(g63
g68
tp1361
I-1
s(g16
g58
tp1362
I-1
s(g10
g4
tp1363
I-1
s(g70
g22
tp1364
I-1
s(g38
g21
tp1365
I-1
s(g5
g104
tp1366
I-1
s(g41
g65
tp1367
I-1
s(g77
g56
tp1368
I-1
s(g68
g120
tp1369
I-1
s(g35
g35
tp1370
I1
s(g68
g73
tp1371
I-1
s(g21
g13
tp1372
I-1
s(g35
g10
tp1373
I-1
s(g22
g32
tp1374
I-1
s(g21
g7
tp1375
I-1
s(g25
g16
tp1376
I-1
s(g19
g58
tp1377
I-1
s(g40
g11
tp1378
I-1
s(g61
g18
tp1379
I-1
s(g19
g48
tp1380
I-1
s(g111
g22
tp1381
I-1
s(g16
g90
tp1382
I-1
s(g18
g38
tp1383
I-1
s(g115
g5
tp1384
I-1
s(g5
g16
tp1385
I-1
s(g120
g75
tp1386
I-1
s(g1
g10
tp1387
I-1
s(g68
g13
tp1388
I-1
s(g29
g38
tp1389
I-1
s(g8
g27
tp1390
I-1
s(g77
g1
tp1391
I-1
s(g61
g87
tp1392
I-1
s(g124
g124
tp1393
I1
s(g104
g68
tp1394
I-1
s(g10
g227
tp1395
I-1
s(g27
g108
tp1396
I-1
s(g65
g61
tp1397
I-1
s(g2
g53
tp1398
I-1
s(g8
g53
tp1399
I-1
s(g90
g108
tp1400
I-1
s(g38
g22
tp1401
I-1
s(g46
g13
tp1402
I-1
s(g87
g115
tp1403
I-1
s(g10
g53
tp1404
I-1
s(g27
g65
tp1405
I-1
s(g111
g68
tp1406
I-1
s(g90
g73
tp1407
I-1
s(g77
g111
tp1408
I-1
s(g108
g27
tp1409
I-1
s(g41
g27
tp1410
I-1
s(g34
g18
tp1411
I-1
s(g4
g65
tp1412
I-1
s(g24
g65
tp1413
I-1
s(g124
g50
tp1414
I-1
s(g50
g31
tp1415
I-1
s(g120
g53
tp1416
I-1
s(g21
g2
tp1417
I-1
s(g46
g50
tp1418
I-1
s(g106
g96
tp1419
I-1
s(g53
g13
tp1420
I-1
s(g14
g77
tp1421
I-1
s(g29
g5
tp1422
I-1
s(g32
g90
tp1423
I-1
s(g227
g32
tp1424
I-1
s(g14
g22
tp1425
I-1
s(g108
g22
tp1426
I-1
s(g120
g5
tp1427
I-1
s(g50
g1
tp1428
I-1
s(g68
g96
tp1429
I-1
s(g61
g120
tp1430
I-1
s(g106
g68
tp1431
I-1
s(g8
g73
tp1432
I-1
s(g63
g27
tp1433
I-1
s(g27
g44
tp1434
I-1
s(g124
g40
tp1435
I-1
s(g46
g32
tp1436
I-1
s(g68
g10
tp1437
I-1
s(g4
g111
tp1438
I-1
s(g53
g65
tp1439
I-1
s(g70
g25
tp1440
I-1
s(g90
g50
tp1441
I-1
s(g77
g65
tp1442
I-1
s(g124
g48
tp1443
I-1
s(g75
g31
tp1444
I-1
s(g48
g90
tp1445
I-1
s(g11
g10
tp1446
I-1
s(g50
g38
tp1447
I-1
s(g56
g120
tp1448
I-1
s(g21
g29
tp1449
I-1
s(g22
g38
tp1450
I-1
s(g16
g50
tp1451
I-1
s(g18
g63
tp1452
I-1
s(g34
g75
tp1453
I-1
s(g11
g44
tp1454
I-1
s(g90
g124
tp1455
I-1
s(g4
g40
tp1456
I-1
s(g11
g11
tp1457
I1
s(g5
g120
tp1458
I-1
s(g41
g68
tp1459
I-1
s(g124
g108
tp1460
I-1
s(g87
g111
tp1461
I-1
s(g106
g1
tp1462
I-1
s(g1
g124
tp1463
I-1
s(g96
g56
tp1464
I-1
s(g14
g34
tp1465
I-1
s(g22
g25
tp1466
I-1
s(g5
g111
tp1467
I-1
s(g124
g73
tp1468
I-1
s(g227
g46
tp1469
I-1
s(g1
g5
tp1470
I-1
s(g34
g34
tp1471
I1
s(g106
g32
tp1472
I-1
s(g14
g8
tp1473
I-1
s(g86
g34
tp1474
I-1
s(g65
g63
tp1475
I-1
s(g19
g50
tp1476
I-1
s(g31
g16
tp1477
I-1
s(g111
g77
tp1478
I-1
s(g10
g90
tp1479
I-1
s(g40
g14
tp1480
I-1
s(g4
g63
tp1481
I-1
s(g96
g104
tp1482
I-1
s(g8
g106
tp1483
I-1
s(g77
g75
tp1484
I-1
s(g108
g86
tp1485
I-1
s(g19
g90
tp1486
I-1
s(g68
g56
tp1487
I-1
s(g4
g2
tp1488
I-1
s(g61
g22
tp1489
I-1
s(g61
g111
tp1490
I-1
s(g46
g21
tp1491
I-1
s(g120
g77
tp1492
I-1
s(g10
g56
tp1493
I-1
s(g46
g56
tp1494
I-1
s(g29
g77
tp1495
I-1
s(g29
g11
tp1496
I-1
s(g106
g115
tp1497
I-1
s(g5
g53
tp1498
I-1
s(g48
g8
tp1499
I-1
s(g96
g38
tp1500
I-1
s(g53
g29
tp1501
I-1
s(g111
g104
tp1502
I-1
s(g108
g1
tp1503
I-1
s(g108
g25
tp1504
I-1
s(g120
g86
tp1505
I-1
s(g77
g86
tp1506
I-1
s(g106
g24
tp1507
I-1
s(g8
g38
tp1508
I-1
s(g16
g16
tp1509
I1
s(g13
g50
tp1510
I-1
s(g19
g106
tp1511
I-1
s(g63
g50
tp1512
I-1
s(g44
g22
tp1513
I-1
s(g31
g31
tp1514
I1
s(g10
g29
tp1515
I-1
s(g48
g19
tp1516
I-1
s(g53
g56
tp1517
I-1
s(g70
g61
tp1518
I-1
s(g27
g227
tp1519
I-1
s(g38
g115
tp1520
I-1
s(g4
g8
tp1521
I-1
s(g96
g63
tp1522
I-1
s(g8
g8
tp1523
I1
s(g106
g46
tp1524
I-1
s(g19
g86
tp1525
I-1
s(g48
g111
tp1526
I-1
s(g18
g68
tp1527
I-1
s(g56
g32
tp1528
I-1
s(g104
g31
tp1529
I-1
s(g56
g13
tp1530
I-1
s(g4
g7
tp1531
I-1
s(g22
g73
tp1532
I-1
s(g10
g87
tp1533
I-1
s(g21
g50
tp1534
I-1
s(g120
g34
tp1535
I-1
s(g4
g34
tp1536
I-1
s(g41
g11
tp1537
I-1
s(g5
g50
tp1538
I-1
s(g58
g27
tp1539
I-1
s(g40
g8
tp1540
I-1
s(g56
g25
tp1541
I-1
s(g63
g2
tp1542
I-1
s(g27
g58
tp1543
I-1
s(g73
g25
tp1544
I-1
s(g16
g75
tp1545
I-1
s(g5
g90
tp1546
I-1
s(g24
g90
tp1547
I-1
s(g25
g19
tp1548
I-1
s(g65
g1
tp1549
I-1
s(g1
g86
tp1550
I-1
s(g104
g7
tp1551
I-1
s(g22
g48
tp1552
I-1
s(g124
g90
tp1553
I-1
s(g40
g29
tp1554
I-1
s(g14
g111
tp1555
I-1
s(g53
g4
tp1556
I-1
s(g90
g2
tp1557
I-1
s(g38
g61
tp1558
I-1
s(g13
g68
tp1559
I-1
s(g31
g48
tp1560
I-1
s(g10
g96
tp1561
I-1
s(g4
g10
tp1562
I-1
s(g10
g111
tp1563
I-1
s(g61
g5
tp1564
I-1
s(g8
g41
tp1565
I-1
s(g25
g8
tp1566
I-1
s(g34
g8
tp1567
I-1
s(g5
g96
tp1568
I-1
s(g18
g50
tp1569
I-1
s(g124
g87
tp1570
I-1
s(g38
g124
tp1571
I-1
s(g46
g104
tp1572
I-1
s(g4
g77
tp1573
I-1
s(g44
g40
tp1574
I-1
s(g21
g27
tp1575
I-1
s(g61
g38
tp1576
I-1
s(g104
g10
tp1577
I-1
s(g48
g50
tp1578
I-1
s(g106
g16
tp1579
I-1
s(g5
g27
tp1580
I-1
s(g32
g124
tp1581
I-1
s(g14
g65
tp1582
I-1
s(g108
g87
tp1583
I-1
s(g25
g68
tp1584
I-1
s(g111
g38
tp1585
I-1
s(g58
g70
tp1586
I-1
s(g48
g7
tp1587
I-1
s(g77
g16
tp1588
I-1
s(g124
g120
tp1589
I-1
s(g104
g11
tp1590
I-1
s(g31
g13
tp1591
I-1
s(g10
g13
tp1592
I-1
s(g35
g18
tp1593
I-1
s(g48
g32
tp1594
I-1
s(g27
g31
tp1595
I-1
s(g111
g40
tp1596
I-1
s(g10
g5
tp1597
I-1
s(g70
g108
tp1598
I-1
s(g4
g50
tp1599
I-1
s(g77
g58
tp1600
I-1
s(g87
g124
tp1601
I-1
s(g96
g22
tp1602
I-1
s(g25
g41
tp1603
I-1
s(g70
g106
tp1604
I-1
s(g21
g10
tp1605
I-1
s(g56
g29
tp1606
I-1
s(g34
g90
tp1607
I-1
s(g11
g14
tp1608
I-1
s(g90
g24
tp1609
I-1
s(g120
g40
tp1610
I-1
s(g5
g8
tp1611
I-1
s(g44
g5
tp1612
I-1
s(g58
g77
tp1613
I-1
s(g124
g25
tp1614
I-1
s(g29
g40
tp1615
I-1
s(g8
g22
tp1616
I-1
s(g106
g11
tp1617
I-1
s(g86
g10
tp1618
I-1
s(g73
g61
tp1619
I-1
s(g58
g21
tp1620
I-1
s(g61
g21
tp1621
I-1
s(g86
g35
tp1622
I-1
s(g24
g96
tp1623
I-1
s(g24
g111
tp1624
I-1
s(g63
g10
tp1625
I-1
s(g50
g35
tp1626
I-1
s(g22
g16
tp1627
I-1
s(g14
g18
tp1628
I-1
s(g65
g31
tp1629
I-1
s(g25
g25
tp1630
I1
s(g68
g22
tp1631
I-1
s(g65
g75
tp1632
I-1
s(g53
g32
tp1633
I-1
s(g61
g124
tp1634
I-1
s(g63
g63
tp1635
I1
s(g31
g96
tp1636
I-1
s(g10
g48
tp1637
I-1
s(g86
g90
tp1638
I-1
s(g34
g106
tp1639
I-1
s(g10
g75
tp1640
I-1
s(g87
g4
tp1641
I-1
s(g13
g44
tp1642
I-1
s(g77
g24
tp1643
I-1
s(g22
g124
tp1644
I-1
s(g18
g4
tp1645
I-1
s(g48
g46
tp1646
I-1
s(g111
g11
tp1647
I-1
s(g21
g77
tp1648
I-1
s(g75
g13
tp1649
I-1
s(g38
g53
tp1650
I-1
s(g24
g108
tp1651
I-1
s(g4
g53
tp1652
I-1
s(g25
g120
tp1653
I-1
s(g44
g34
tp1654
I-1
s(g115
g87
tp1655
I-1
s(g65
g46
tp1656
I-1
s(g87
g46
tp1657
I-1
s(g106
g21
tp1658
I-1
s(g5
g7
tp1659
I-1
s(g65
g13
tp1660
I-1
s(g46
g41
tp1661
I-1
s(g32
g68
tp1662
I-1
s(g16
g48
tp1663
I-1
s(g87
g18
tp1664
I-1
s(g46
g14
tp1665
I-1
s(g18
g108
tp1666
I-1
s(g58
g35
tp1667
I-1
s(g111
g10
tp1668
I-1
s(g48
g22
tp1669
I-1
s(g75
g65
tp1670
I-1
s(g106
g124
tp1671
I-1
s(g108
g13
tp1672
I-1
s(g2
g35
tp1673
I-1
s(g25
g14
tp1674
I-1
s(g68
g14
tp1675
I-1
s(g50
g75
tp1676
I-1
s(g35
g32
tp1677
I-1
s(g86
g40
tp1678
I-1
s(g61
g48
tp1679
I-1
s(g75
g14
tp1680
I-1
s(g31
g29
tp1681
I-1
s(g10
g31
tp1682
I-1
s(g4
g24
tp1683
I-1
s(g10
g10
tp1684
I0
s(g70
g58
tp1685
I-1
s(g27
g87
tp1686
I-1
s(g19
g25
tp1687
I-1
s(g75
g35
tp1688
I-1
s(g41
g61
tp1689
I-1
s(g77
g108
tp1690
I-1
s(g19
g27
tp1691
I-1
s(g65
g40
tp1692
I-1
s(g104
g29
tp1693
I-1
s(g21
g34
tp1694
I-1
s(g90
g68
tp1695
I-1
s(g73
g227
tp1696
I-1
s(g108
g73
tp1697
I-1
s(g25
g46
tp1698
I-1
s(g25
g53
tp1699
I-1
s(g44
g10
tp1700
I-1
s(g58
g53
tp1701
I-1
s(g63
g16
tp1702
I-1
s(g40
g18
tp1703
I-1
s(g48
g56
tp1704
I-1
s(g50
g50
tp1705
I1
s(g16
g24
tp1706
I-1
s(g24
g48
tp1707
I-1
s(g124
g19
tp1708
I-1
s(g13
g75
tp1709
I-1
s(g18
g44
tp1710
I-1
s(g120
g124
tp1711
I-1
s(g1
g4
tp1712
I-1
s(g104
g38
tp1713
I-1
s(g8
g96
tp1714
I-1
s(g40
g77
tp1715
I-1
s(g124
g75
tp1716
I-1
s(g40
g31
tp1717
I-1
s(g29
g46
tp1718
I-1
s(g13
g63
tp1719
I-1
s(g90
g56
tp1720
I-1
s(g38
g58
tp1721
I-1
s(g46
g34
tp1722
I-1
s(g24
g21
tp1723
I-1
s(g10
g16
tp1724
I-1
s(g8
g68
tp1725
I-1
s(g46
g11
tp1726
I-1
s(g77
g68
tp1727
I-1
s(g19
g34
tp1728
I-1
s(g34
g11
tp1729
I-1
s(g29
g4
tp1730
I-1
s(g2
g77
tp1731
I-1
s(g53
g8
tp1732
I-1
s(g4
g61
tp1733
I-1
s(g24
g61
tp1734
I-1
s(g124
g227
tp1735
I-1
s(g115
g124
tp1736
I-1
s(g21
g25
tp1737
I-1
s(g10
g38
tp1738
I-1
s(g68
g77
tp1739
I-1
s(g50
g24
tp1740
I-1
s(g104
g86
tp1741
I-1
s(g34
g14
tp1742
I-1
s(g14
g48
tp1743
I-1
s(g32
g24
tp1744
I-1
s(g46
g10
tp1745
I-1
s(g14
g58
tp1746
I-1
s(g106
g61
tp1747
I-1
s(g120
g32
tp1748
I-1
s(g13
g35
tp1749
I-1
s(g61
g31
tp1750
I-1
s(g34
g46
tp1751
I-1
s(g124
g27
tp1752
I-1
s(g106
g111
tp1753
I-1
s(g108
g29
tp1754
I-1
s(g87
g40
tp1755
I-1
s(g11
g86
tp1756
I-1
s(g35
g1
tp1757
I-1
s(g18
g35
tp1758
I-1
s(g124
g29
tp1759
I-1
s(g104
g1
tp1760
I-1
s(g56
g70
tp1761
I-1
s(g4
g68
tp1762
I-1
s(g27
g29
tp1763
I-1
s(g38
g1
tp1764
I-1
s(g70
g2
tp1765
I-1
s(g115
g53
tp1766
I-1
s(g8
g227
tp1767
I-1
s(g44
g56
tp1768
I-1
s(g70
g124
tp1769
I-1
s(g16
g104
tp1770
I-1
s(g41
g21
tp1771
I-1
s(g40
g86
tp1772
I-1
s(g115
g22
tp1773
I-1
s(g70
g63
tp1774
I-1
s(g111
g35
tp1775
I-1
s(g56
g31
tp1776
I-1
s(g21
g40
tp1777
I-1
s(g22
g44
tp1778
I-1
s(g90
g77
tp1779
I-1
s(g44
g21
tp1780
I-1
s(g11
g38
tp1781
I-1
s(g90
g75
tp1782
I-1
s(g73
g1
tp1783
I-1
s(g108
g38
tp1784
I-1
s(g87
g44
tp1785
I-1
s(g5
g31
tp1786
I-1
s(g96
g19
tp1787
I-1
s(g22
g56
tp1788
I-1
s(g124
g56
tp1789
I-1
s(g86
g86
tp1790
I1
s(g77
g61
tp1791
I-1
s(g14
g13
tp1792
I-1
s(g90
g106
tp1793
I-1
s(g108
g21
tp1794
I-1
s(g29
g63
tp1795
I-1
s(g27
g34
tp1796
I-1
s(g34
g13
tp1797
I-1
s(g14
g1
tp1798
I-1
s(g1
g87
tp1799
I-1
s(g68
g61
tp1800
I-1
s(g19
g227
tp1801
I-1
s(g13
g65
tp1802
I-1
s(g8
g24
tp1803
I-1
s(g34
g63
tp1804
I-1
s(g48
g27
tp1805
I-1
s(g96
g87
tp1806
I-1
s(g8
g21
tp1807
I-1
s(g29
g104
tp1808
I-1
s(g77
g124
tp1809
I-1
s(g108
g19
tp1810
I-1
s(g29
g124
tp1811
I-1
s(g104
g48
tp1812
I-1
s(g53
g104
tp1813
I-1
s(g4
g25
tp1814
I-1
s(g61
g58
tp1815
I-1
s(g38
g27
tp1816
I-1
s(g46
g73
tp1817
I-1
s(g46
g106
tp1818
I-1
s(g73
g115
tp1819
I-1
s(g87
g61
tp1820
I-1
s(g11
g63
tp1821
I-1
s(g63
g13
tp1822
I-1
s(g65
g5
tp1823
I-1
s(g46
g108
tp1824
I-1
s(g29
g48
tp1825
I-1
s(g68
g111
tp1826
I-1
s(g48
g1
tp1827
I-1
s(g68
g106
tp1828
I-1
s(g108
g8
tp1829
I-1
s(g63
g90
tp1830
I-1
s(g40
g5
tp1831
I-1
s(g120
g19
tp1832
I-1
s(g106
g90
tp1833
I-1
s(g35
g106
tp1834
I-1
s(g16
g53
tp1835
I-1
s(g68
g44
tp1836
I-1
s(g19
g21
tp1837
I-1
s(g111
g106
tp1838
I-1
s(g58
g32
tp1839
I-1
s(g56
g44
tp1840
I-1
s(g48
g86
tp1841
I-1
s(g70
g65
tp1842
I-1
s(g50
g65
tp1843
I-1
s(g11
g2
tp1844
I-1
s(g22
g65
tp1845
I-1
s(g96
g115
tp1846
I-1
s(g8
g1
tp1847
I-1
s(g44
g65
tp1848
I-1
s(g70
g68
tp1849
I-1
s(g90
g32
tp1850
I-1
s(g111
g2
tp1851
I-1
s(g56
g5
tp1852
I-1
s(g104
g120
tp1853
I-1
s(g4
g14
tp1854
I-1
s(g22
g70
tp1855
I-1
s(g14
g44
tp1856
I-1
s(g115
g19
tp1857
I-1
s(g41
g18
tp1858
I-1
s(g5
g227
tp1859
I-1
s(g68
g40
tp1860
I-1
s(g86
g7
tp1861
I-1
s(g58
g96
tp1862
I-1
s(g5
g21
tp1863
I-1
s(g1
g227
tp1864
I-1
s(g8
g108
tp1865
I-1
s(g63
g25
tp1866
I-1
s(g27
g22
tp1867
I-1
s(g68
g50
tp1868
I-1
s(g16
g124
tp1869
I-1
s(g124
g4
tp1870
I-1
s(g73
g46
tp1871
I-1
s(g24
g24
tp1872
I1
s(g115
g46
tp1873
I-1
s(g65
g8
tp1874
I-1
s(g1
g19
tp1875
I-1
s(g104
g14
tp1876
I-1
s(g111
g90
tp1877
I-1
s(g58
g13
tp1878
I-1
s(g22
g77
tp1879
I-1
s(g46
g96
tp1880
I-1
s(g40
g40
tp1881
I1
s(g41
g48
tp1882
I-1
s(g87
g77
tp1883
I-1
s(g53
g10
tp1884
I-1
s(g18
g11
tp1885
I-1
s(g38
g65
tp1886
I-1
s(g4
g4
tp1887
I1
s(g68
g32
tp1888
I-1
s(g115
g34
tp1889
I-1
s(g8
g35
tp1890
I-1
s(g34
g1
tp1891
I-1
s(g38
g24
tp1892
I-1
s(g108
g14
tp1893
I-1
s(g14
g108
tp1894
I-1
s(g115
g24
tp1895
I-1
s(g48
g41
tp1896
I-1
s(g8
g120
tp1897
I-1
s(g104
g4
tp1898
I-1
s(g34
g44
tp1899
I-1
s(g48
g227
tp1900
I-1
s(g2
g8
tp1901
I-1
s(g108
g104
tp1902
I-1
s(g65
g14
tp1903
I-1
s(g106
g22
tp1904
I-1
s(g73
g16
tp1905
I-1
s(g124
g53
tp1906
I-1
s(g11
g32
tp1907
I-1
s(g50
g70
tp1908
I-1
s(g58
g73
tp1909
I-1
s(g56
g104
tp1910
I-1
s(g10
g86
tp1911
I-1
s(g124
g31
tp1912
I-1
s(g104
g18
tp1913
I-1
s(g2
g32
tp1914
I-1
s(g111
g16
tp1915
I-1
s(g48
g5
tp1916
I-1
s(g27
g120
tp1917
I-1
s(g44
g96
tp1918
I-1
s(g70
g56
tp1919
I-1
s(g115
g27
tp1920
I-1
s(g41
g75
tp1921
I-1
s(g90
g120
tp1922
I-1
s(g77
g22
tp1923
I-1
s(g87
g75
tp1924
I-1
s(g70
g24
tp1925
I-1
s(g1
g32
tp1926
I-1
s(g96
g58
tp1927
I-1
s(g40
g10
tp1928
I-1
s(g227
g56
tp1929
I-1
s(g70
g21
tp1930
I-1
s(g2
g227
tp1931
I-1
s(g16
g34
tp1932
I-1
s(g11
g7
tp1933
I-1
s(g90
g90
tp1934
I1
s(g65
g70
tp1935
I-1
s(g44
g32
tp1936
I-1
s(g58
g48
tp1937
I-1
s(g124
g2
tp1938
I-1
s(g29
g29
tp1939
I1
s(g8
g58
tp1940
I-1
s(g35
g77
tp1941
I-1
s(g1
g68
tp1942
I-1
s(g86
g4
tp1943
I-1
s(g65
g35
tp1944
I-1
s(g1
g111
tp1945
I-1
s(g22
g31
tp1946
I-1
s(g86
g41
tp1947
I-1
s(g24
g27
tp1948
I-1
s(g21
g46
tp1949
I-1
s(g90
g63
tp1950
I-1
s(g73
g10
tp1951
I-1
s(g24
g68
tp1952
I-1
s(g63
g4
tp1953
I-1
s(g111
g96
tp1954
I-1
s(g227
g29
tp1955
I-1
s(g11
g96
tp1956
I-1
s(g96
g18
tp1957
I-1
s(g22
g53
tp1958
I-1
s(g70
g53
tp1959
I-1
s(g14
g11
tp1960
I-1
s(g19
g68
tp1961
I-1
s(g86
g46
tp1962
I-1
s(g68
g58
tp1963
I-1
s(g53
g5
tp1964
I-1
s(g61
g75
tp1965
I-1
s(g56
g63
tp1966
I-1
s(g2
g124
tp1967
I-1
s(g16
g65
tp1968
I-1
s(g34
g21
tp1969
I-1
s(g87
g10
tp1970
I-1
s(g75
g75
tp1971
I1
s(g227
g38
tp1972
I-1
s(g111
g18
tp1973
I-1
s(g10
g1
tp1974
I-1
s(g75
g34
tp1975
I-1
s(g38
g16
tp1976
I-1
s(g44
g87
tp1977
I-1
s(g18
g65
tp1978
I-1
s(g48
g106
tp1979
I-1
s(g29
g25
tp1980
I-1
s(g73
g120
tp1981
I-1
s(g227
g115
tp1982
I-1
s(g68
g63
tp1983
I-1
s(g22
g46
tp1984
I-1
s(g61
g27
tp1985
I-1
s(g50
g46
tp1986
I-1
s(g87
g11
tp1987
I-1
s(g75
g227
tp1988
I-1
s(g73
g48
tp1989
I-1
s(g70
g40
tp1990
I-1
s(g111
g4
tp1991
I-1
s(g38
g41
tp1992
I-1
s(g32
g46
tp1993
I-1
s(g75
g61
tp1994
I-1
s(g106
g75
tp1995
I-1
s(g108
g34
tp1996
I-1
s(g18
g90
tp1997
I-1
s(g68
g7
tp1998
I-1
s(g13
g53
tp1999
I-1
s(g120
g7
tp2000
I-1
s(g35
g5
tp2001
I-1
s(g124
g63
tp2002
I-1
s(g56
g14
tp2003
I-1
s(g41
g87
tp2004
I-1
s(g44
g48
tp2005
I-1
s(g27
g104
tp2006
I-1
s(g19
g2
tp2007
I-1
s(g40
g87
tp2008
I-1
s(g19
g96
tp2009
I-1
s(g70
g35
tp2010
I-1
s(g53
g106
tp2011
I-1
s(g124
g7
tp2012
I-1
s(g14
g14
tp2013
I1
s(g77
g115
tp2014
I-1
s(g90
g111
tp2015
I-1
s(g73
g50
tp2016
I-1
s(g108
g70
tp2017
I-1
s(g68
g31
tp2018
I-1
s(g27
g111
tp2019
I-1
s(g13
g108
tp2020
I-1
s(g58
g16
tp2021
I-1
s(g61
g11
tp2022
I-1
s(g24
g29
tp2023
I-1
s(g124
g68
tp2024
I-1
s(g24
g86
tp2025
I-1
s(g50
g227
tp2026
I-1
s(g68
g104
tp2027
I-1
s(g2
g68
tp2028
I-1
s(g24
g77
tp2029
I-1
s(g124
g86
tp2030
I-1
s(g13
g124
tp2031
I-1
s(g56
g48
tp2032
I-1
s(g73
g13
tp2033
I-1
s(g227
g13
tp2034
I-1
s(g104
g44
tp2035
I-1
s(g48
g120
tp2036
I-1
s(g50
g16
tp2037
I-1
s(g40
g120
tp2038
I-1
s(g25
g87
tp2039
I-1
s(g120
g2
tp2040
I-1
s(g24
g106
tp2041
I-1
s(g8
g111
tp2042
I-1
s(g61
g70
tp2043
I-1
s(g46
g18
tp2044
I-1
s(g19
g13
tp2045
I-1
s(g227
g73
tp2046
I-1
s(g14
g27
tp2047
I-1
s(g29
g10
tp2048
I-1
s(g53
g1
tp2049
I-1
s(g22
g1
tp2050
I-1
s(g77
g29
tp2051
I-1
s(g44
g1
tp2052
I-1
s(g14
g25
tp2053
I-1
s(g115
g75
tp2054
I-1
s(g25
g90
tp2055
I-1
s(g68
g48
tp2056
I-1
s(g50
g90
tp2057
I-1
s(g104
g19
tp2058
I-1
s(g34
g7
tp2059
I-1
s(g46
g4
tp2060
I-1
s(g73
g111
tp2061
I-1
s(g35
g104
tp2062
I-1
s(g106
g65
tp2063
I-1
s(g106
g48
tp2064
I-1
s(g227
g48
tp2065
I-1
s(g11
g68
tp2066
I-1
s(g13
g41
tp2067
I-1
s(g73
g38
tp2068
I-1
s(g124
g96
tp2069
I-1
s(g108
g40
tp2070
I-1
s(g25
g115
tp2071
I-1
s(g75
g77
tp2072
I-1
s(g87
g29
tp2073
I-1
s(g18
g41
tp2074
I-1
s(g34
g68
tp2075
I-1
s(g227
g5
tp2076
I-1
s(g104
g8
tp2077
I-1
s(g56
g73
tp2078
I-1
s(g27
g40
tp2079
I-1
s(g7
g90
tp2080
I-1
s(g115
g16
tp2081
I-1
s(g90
g40
tp2082
I-1
s(g5
g32
tp2083
I-1
s(g44
g108
tp2084
I-1
s(g70
g75
tp2085
I-1
s(g41
g106
tp2086
I-1
s(g40
g19
tp2087
I-1
s(g53
g53
tp2088
I1
s(g75
g120
tp2089
I-1
s(g70
g115
tp2090
I-1
s(g111
g41
tp2091
I-1
s(g90
g48
tp2092
I-1
s(g44
g106
tp2093
I-1
s(g77
g35
tp2094
I-1
s(g73
g8
tp2095
I-1
s(g108
g44
tp2096
I-1
s(g50
g106
tp2097
I-1
s(g87
g38
tp2098
I-1
s(g96
g86
tp2099
I-1
s(g24
g13
tp2100
I-1
s(g96
g68
tp2101
I-1
s(g14
g104
tp2102
I-1
s(g2
g104
tp2103
I-1
s(g25
g65
tp2104
I-1
s(g86
g19
tp2105
I-1
s(g7
g115
tp2106
I-1
s(g90
g21
tp2107
I-1
s(g108
g106
tp2108
I-1
s(g53
g14
tp2109
I-1
s(g70
g27
tp2110
I-1
s(g24
g227
tp2111
I-1
s(g68
g65
tp2112
I-1
s(g11
g35
tp2113
I-1
s(g120
g65
tp2114
I-1
s(g21
g16
tp2115
I-1
s(g61
g25
tp2116
I-1
s(g56
g106
tp2117
I-1
s(g227
g75
tp2118
I-1
s(g13
g61
tp2119
I-1
s(g2
g24
tp2120
I-1
s(g25
g13
tp2121
I-1
s(g8
g90
tp2122
I-1
s(g34
g115
tp2123
I-1
s(g48
g96
tp2124
I-1
s(g46
g65
tp2125
I-1
s(g29
g87
tp2126
I-1
s(g96
g75
tp2127
I-1
s(g104
g77
tp2128
I-1
s(g53
g87
tp2129
I-1
s(g22
g227
tp2130
I-1
s(g50
g19
tp2131
I-1
s(g38
g96
tp2132
I-1
s(g46
g70
tp2133
I-1
s(g75
g41
tp2134
I-1
s(g65
g16
tp2135
I-1
s(g73
g63
tp2136
I-1
s(g87
g65
tp2137
I-1
s(g11
g115
tp2138
I-1
s(g63
g34
tp2139
I-1
s(g61
g53
tp2140
I-1
s(g65
g32
tp2141
I-1
s(g25
g73
tp2142
I-1
s(g68
g21
tp2143
I-1
s(g13
g1
tp2144
I-1
s(g53
g68
tp2145
I-1
s(g11
g21
tp2146
I-1
s(g16
g96
tp2147
I-1
s(g8
g13
tp2148
I-1
s(g73
g90
tp2149
I-1
s(g63
g24
tp2150
I-1
s(g227
g16
tp2151
I-1
s(g27
g11
tp2152
I-1
s(g22
g75
tp2153
I-1
s(g35
g21
tp2154
I-1
s(g68
g38
tp2155
I-1
s(g7
g46
tp2156
I-1
s(g35
g46
tp2157
I-1
s(g96
g40
tp2158
I-1
s(g56
g38
tp2159
I-1
s(g25
g48
tp2160
I-1
s(g7
g111
tp2161
I-1
s(g111
g46
tp2162
I-1
s(g22
g61
tp2163
I-1
s(g40
g227
tp2164
I-1
s(g5
g19
tp2165
I-1
s(g44
g61
tp2166
I-1
s(g70
g111
tp2167
I-1
s(g90
g5
tp2168
I-1
s(g2
g96
tp2169
I-1
s(g111
g25
tp2170
I-1
s(g227
g58
tp2171
I-1
s(g14
g38
tp2172
I-1
s(g77
g21
tp2173
I-1
s(g115
g86
tp2174
I-1
s(g58
g108
tp2175
I-1
s(g68
g29
tp2176
I-1
s(g86
g14
tp2177
I-1
s(g61
g46
tp2178
I-1
s(g13
g10
tp2179
I-1
s(g8
g56
tp2180
I-1
s(g68
g227
tp2181
I-1
s(g7
g35
tp2182
I-1
s(g46
g29
tp2183
I-1
s(g124
g10
tp2184
I-1
s(g96
g13
tp2185
I-1
s(g2
g34
tp2186
I-1
s(g41
g29
tp2187
I-1
s(g96
g96
tp2188
I1
s(g111
g24
tp2189
I-1
s(g61
g19
tp2190
I-1
s(g16
g1
tp2191
I-1
s(g24
g7
tp2192
I-1
s(g46
g27
tp2193
I-1
s(g24
g11
tp2194
I-1
s(g19
g120
tp2195
I-1
s(g41
g77
tp2196
I-1
s(g13
g31
tp2197
I-1
s(g87
g48
tp2198
I-1
s(g56
g53
tp2199
I-1
s(g48
g34
tp2200
I-1
s(g18
g18
tp2201
I1
s(g68
g5
tp2202
I-1
s(g21
g35
tp2203
I-1
s(g115
g13
tp2204
I-1
s(g1
g31
tp2205
I-1
s(g21
g70
tp2206
I-1
s(g2
g70
tp2207
I-1
s(g63
g7
tp2208
I-1
s(g13
g96
tp2209
I-1
s(g14
g53
tp2210
I-1
s(g38
g90
tp2211
I-1
s(g16
g5
tp2212
I-1
s(g77
g31
tp2213
I-1
s(g120
g11
tp2214
I-1
s(g14
g56
tp2215
I-1
s(g32
g58
tp2216
I-1
s(g115
g90
tp2217
I-1
s(g48
g35
tp2218
I-1
s(g104
g2
tp2219
I-1
s(g8
g31
tp2220
I-1
s(g58
g38
tp2221
I-1
s(g46
g75
tp2222
I-1
s(g40
g96
tp2223
I-1
s(g34
g38
tp2224
I-1
s(g53
g24
tp2225
I-1
s(g50
g25
tp2226
I-1
s(g124
g34
tp2227
I-1
s(g35
g50
tp2228
I-1
s(g8
g4
tp2229
I-1
s(g106
g58
tp2230
I-1
s(g73
g53
tp2231
I-1
s(g58
g2
tp2232
I-1
s(g34
g32
tp2233
I-1
s(g124
g16
tp2234
I-1
s(g22
g24
tp2235
I-1
s(g29
g68
tp2236
I-1
s(g11
g5
tp2237
I-1
s(g50
g73
tp2238
I-1
s(g41
g86
tp2239
I-1
s(g56
g87
tp2240
I-1
s(g2
g5
tp2241
I-1
s(g44
g27
tp2242
I-1
s(g7
g75
tp2243
I-1
s(g21
g1
tp2244
I-1
s(g115
g96
tp2245
I-1
s(g41
g124
tp2246
I-1
s(g90
g31
tp2247
I-1
s(g70
g90
tp2248
I-1
s(g41
g14
tp2249
I-1
s(g21
g75
tp2250
I-1
s(g40
g4
tp2251
I-1
s(g227
g108
tp2252
I-1
s(g53
g46
tp2253
I-1
s(g34
g53
tp2254
I-1
s(g61
g41
tp2255
I-1
s(g120
g21
tp2256
I-1
s(g27
g50
tp2257
I-1
s(g35
g40
tp2258
I-1
s(g14
g50
tp2259
I-1
s(g90
g18
tp2260
I-1
s(g35
g48
tp2261
I-1
s(g65
g41
tp2262
I-1
s(g77
g25
tp2263
I-1
s(g7
g21
tp2264
I-1
s(g22
g120
tp2265
I-1
s(g16
g38
tp2266
I-1
s(g104
g21
tp2267
I-1
s(g90
g115
tp2268
I-1
s(g73
g4
tp2269
I-1
s(g111
g27
tp2270
I-1
s(g227
g40
tp2271
I-1
s(g96
g11
tp2272
I-1
s(g87
g32
tp2273
I-1
s(g70
g16
tp2274
I-1
s(g19
g111
tp2275
I-1
s(g31
g18
tp2276
I-1
s(g56
g115
tp2277
I-1
s(g75
g86
tp2278
I-1
s(g5
g22
tp2279
I-1
s(g2
g75
tp2280
I-1
s(g4
g46
tp2281
I-1
s(g44
g75
tp2282
I-1
s(g21
g115
tp2283
I-1
s(g1
g13
tp2284
I-1
s(g75
g124
tp2285
I-1
s(g21
g5
tp2286
I-1
s(g227
g44
tp2287
I-1
s(g18
g96
tp2288
I-1
s(g87
g50
tp2289
I-1
s(g44
g104
tp2290
I-1
s(g18
g61
tp2291
I-1
s(g65
g96
tp2292
I-1
s(g32
g2
tp2293
I-1
s(g48
g21
tp2294
I-1
s(g29
g2
tp2295
I-1
s(g227
g63
tp2296
I-1
s(g68
g115
tp2297
I-1
s(g41
g38
tp2298
I-1
s(g63
g8
tp2299
I-1
s(g2
g16
tp2300
I-1
s(g75
g50
tp2301
I-1
s(g73
g77
tp2302
I-1
s(g27
g1
tp2303
I-1
s(g38
g35
tp2304
I-1
s(g18
g24
tp2305
I-1
s(g120
g14
tp2306
I-1
s(g31
g106
tp2307
I-1
s(g227
g19
tp2308
I-1
s(g56
g7
tp2309
I-1
s(g41
g104
tp2310
I-1
s(g44
g77
tp2311
I-1
s(g21
g87
tp2312
I-1
s(g61
g50
tp2313
I-1
s(g40
g104
tp2314
I-1
s(g63
g65
tp2315
I-1
s(g21
g68
tp2316
I-1
s(g53
g21
tp2317
I-1
s(g120
g35
tp2318
I-1
s(g87
g106
tp2319
I-1
s(g14
g7
tp2320
I-1
s(g77
g63
tp2321
I-1
s(g50
g8
tp2322
I-1
s(g27
g68
tp2323
I-1
s(g38
g14
tp2324
I-1
s(g24
g40
tp2325
I-1
s(g124
g111
tp2326
I-1
s(g24
g19
tp2327
I-1
s(g68
g87
tp2328
I-1
s(g75
g63
tp2329
I-1
s(g16
g35
tp2330
I-1
s(g50
g40
tp2331
I-1
s(g58
g7
tp2332
I-1
s(g73
g34
tp2333
I-1
s(g227
g34
tp2334
I-1
s(g38
g46
tp2335
I-1
s(g65
g11
tp2336
I-1
s(g58
g31
tp2337
I-1
s(g46
g87
tp2338
I-1
s(g70
g48
tp2339
I-1
s(g25
g104
tp2340
I-1
s(g75
g115
tp2341
I-1
s(g120
g25
tp2342
I-1
s(g58
g5
tp2343
I-1
s(g31
g50
tp2344
I-1
s(g86
g73
tp2345
I-1
s(g108
g65
tp2346
I-1
s(g61
g73
tp2347
I-1
s(g1
g29
tp2348
I-1
s(g1
g75
tp2349
I-1
s(g86
g16
tp2350
I-1
s(g227
g70
tp2351
I-1
s(g14
g96
tp2352
I-1
s(g35
g44
tp2353
I-1
s(g22
g8
tp2354
I-1
s(g77
g40
tp2355
I-1
s(g65
g90
tp2356
I-1
s(g44
g8
tp2357
I-1
s(g14
g2
tp2358
I-1
s(g32
g65
tp2359
I-1
s(g65
g25
tp2360
I-1
s(g25
g24
tp2361
I-1
s(g104
g56
tp2362
I-1
s(g40
g65
tp2363
I-1
s(g10
g63
tp2364
I-1
s(g40
g16
tp2365
I-1
s(g70
g46
tp2366
I-1
s(g86
g44
tp2367
I-1
s(g73
g68
tp2368
I-1
s(g35
g87
tp2369
I-1
s(g227
g77
tp2370
I-1
s(g11
g111
tp2371
I-1
s(g29
g41
tp2372
I-1
s(g96
g25
tp2373
I-1
s(g25
g63
tp2374
I-1
s(g10
g104
tp2375
I-1
s(g31
g41
tp2376
I-1
s(g34
g111
tp2377
I-1
s(g96
g27
tp2378
I-1
s(g10
g108
tp2379
I-1
s(g227
g8
tp2380
I-1
s(g7
g24
tp2381
I-1
s(g90
g29
tp2382
I-1
s(g5
g5
tp2383
I1
s(g53
g16
tp2384
I-1
s(g18
g31
tp2385
I-1
s(g34
g27
tp2386
I-1
s(g65
g124
tp2387
I-1
s(g11
g34
tp2388
I-1
s(g77
g41
tp2389
I-1
s(g35
g120
tp2390
I-1
s(g63
g5
tp2391
I-1
s(g50
g21
tp2392
I-1
s(g10
g8
tp2393
I-1
s(g24
g34
tp2394
I-1
s(g227
g50
tp2395
I-1
s(g14
g87
tp2396
I-1
s(g90
g8
tp2397
I-1
s(g19
g124
tp2398
I-1
s(g2
g87
tp2399
I-1
s(g25
g61
tp2400
I-1
s(g2
g120
tp2401
I-1
s(g7
g63
tp2402
I-1
s(g19
g8
tp2403
I-1
s(g104
g115
tp2404
I-1
s(g96
g48
tp2405
I-1
s(g53
g7
tp2406
I-1
s(g58
g63
tp2407
I-1
s(g44
g38
tp2408
I-1
s(g29
g8
tp2409
I-1
s(g70
g96
tp2410
I-1
s(g24
g50
tp2411
I-1
s(g96
g14
tp2412
I-1
s(g106
g77
tp2413
I-1
s(g111
g227
tp2414
I-1
s(g120
g61
tp2415
I-1
s(g61
g2
tp2416
I-1
s(g31
g8
tp2417
I-1
s(g56
g21
tp2418
I-1
s(g227
g124
tp2419
I-1
s(g108
g56
tp2420
I-1
s(g2
g90
tp2421
I-1
s(g25
g34
tp2422
I-1
s(g87
g108
tp2423
I-1
s(g22
g35
tp2424
I-1
s(g46
g61
tp2425
I-1
s(g22
g7
tp2426
I-1
s(g8
g14
tp2427
I-1
s(g58
g19
tp2428
I-1
s(g22
g50
tp2429
I-1
s(g50
g86
tp2430
I-1
s(g120
g87
tp2431
I-1
s(g65
g53
tp2432
I-1
s(g32
g56
tp2433
I-1
s(g111
g5
tp2434
I-1
s(g75
g2
tp2435
I-1
s(g10
g41
tp2436
I-1
s(g19
g4
tp2437
I-1
s(g25
g70
tp2438
I-1
s(g13
g8
tp2439
I-1
s(g53
g111
tp2440
I-1
s(g19
g41
tp2441
I-1
s(g16
g11
tp2442
I-1
s(g77
g38
tp2443
I-1
s(g73
g24
tp2444
I-1
s(g1
g11
tp2445
I-1
s(g227
g53
tp2446
I-1
s(g27
g18
tp2447
I-1
s(g41
g25
tp2448
I-1
s(g108
g75
tp2449
I-1
s(g19
g46
tp2450
I-1
s(g106
g34
tp2451
I-1
s(g104
g13
tp2452
I-1
s(g31
g63
tp2453
I-1
s(g5
g124
tp2454
I-1
s(g25
g10
tp2455
I-1
s(g25
g77
tp2456
I-1
s(g21
g96
tp2457
I-1
s(g7
g68
tp2458
I-1
s(g63
g48
tp2459
I-1
s(g40
g50
tp2460
I-1
s(g5
g86
tp2461
I-1
s(g10
g7
tp2462
I-1
s(g50
g18
tp2463
I-1
s(g68
g18
tp2464
I-1
s(g227
g22
tp2465
I-1
s(g124
g32
tp2466
I-1
s(g77
g106
tp2467
I-1
s(g58
g106
tp2468
I-1
s(g104
g73
tp2469
I-1
s(g7
g87
tp2470
I-1
s(g56
g111
tp2471
I-1
s(g38
g44
tp2472
I-1
s(g46
g48
tp2473
I-1
s(g13
g4
tp2474
I-1
s(g25
g11
tp2475
I-1
s(g87
g27
tp2476
I-1
s(g7
g41
tp2477
I-1
s(g18
g87
tp2478
I-1
s(g86
g70
tp2479
I-1
s(g46
g40
tp2480
I-1
s(g56
g108
tp2481
I-1
s(g2
g13
tp2482
I-1
s(g41
g40
tp2483
I-1
s(g56
g96
tp2484
I-1
s(g68
g4
tp2485
I-1
s(g115
g120
tp2486
I-1
s(g61
g14
tp2487
I-1
s(g61
g86
tp2488
I-1
s(g24
g14
tp2489
I-1
s(g44
g73
tp2490
I-1
s(g106
g41
tp2491
I-1
s(g24
g18
tp2492
I-1
s(g19
g31
tp2493
I-1
s(g111
g7
tp2494
I-1
s(g56
g16
tp2495
I-1
s(g48
g13
tp2496
I-1
s(g31
g104
tp2497
I-1
s(g5
g108
tp2498
I-1
s(g227
g68
tp2499
I-1
s(g86
g2
tp2500
I-1
s(g63
g96
tp2501
I-1
s(g21
g41
tp2502
I-1
s(g22
g21
tp2503
I-1
s(g50
g68
tp2504
I-1
s(g1
g120
tp2505
I-1
s(g86
g96
tp2506
I-1
s(g2
g73
tp2507
I-1
s(g108
g46
tp2508
I-1
s(g14
g16
tp2509
I-1
s(g35
g14
tp2510
I-1
s(g48
g44
tp2511
I-1
s(g16
g32
tp2512
I-1
s(g77
g120
tp2513
I-1
s(g120
g18
tp2514
I-1
s(g32
g22
tp2515
I-1
s(g111
g31
tp2516
I-1
s(g104
g25
tp2517
I-1
s(g40
g58
tp2518
I-1
s(g4
g87
tp2519
I-1
s(g21
g53
tp2520
I-1
s(g10
g106
tp2521
I-1
s(g46
g124
tp2522
I-1
s(g40
g27
tp2523
I-1
s(g87
g34
tp2524
I-1
s(g53
g90
tp2525
I-1
s(g22
g10
tp2526
I-1
s(g77
g73
tp2527
I-1
s(g124
g13
tp2528
I-1
s(g120
g31
tp2529
I-1
s(g2
g4
tp2530
I-1
s(g35
g227
tp2531
I-1
s(g8
g10
tp2532
I-1
s(g68
g124
tp2533
I-1
s(g115
g77
tp2534
I-1
s(g34
g5
tp2535
I-1
s(g11
g22
tp2536
I-1
s(g16
g19
tp2537
I-1
s(g106
g40
tp2538
I-1
s(g73
g58
tp2539
I-1
s(g29
g111
tp2540
I-1
s(g111
g115
tp2541
I-1
s(g7
g86
tp2542
I-1
s(g41
g19
tp2543
I-1
s(g87
g70
tp2544
I-1
s(g115
g104
tp2545
I-1
s(g7
g124
tp2546
I-1
s(g21
g8
tp2547
I-1
s(g35
g27
tp2548
I-1
s(g21
g124
tp2549
I-1
s(g34
g16
tp2550
I-1
s(g63
g21
tp2551
I-1
s(g61
g35
tp2552
I-1
s(g120
g106
tp2553
I-1
s(g35
g29
tp2554
I-1
s(g7
g1
tp2555
I-1
s(g10
g18
tp2556
I-1
s(g13
g7
tp2557
I-1
s(g14
g227
tp2558
I-1
s(g90
g11
tp2559
I-1
s(g18
g86
tp2560
I-1
s(g11
g1
tp2561
I-1
s(g7
g106
tp2562
I-1
s(g115
g111
tp2563
I-1
s(g24
g2
tp2564
I-1
s(g104
g106
tp2565
I-1
s(g4
g96
tp2566
I-1
s(g34
g41
tp2567
I-1
s(g1
g46
tp2568
I-1
s(g19
g44
tp2569
I-1
s(g40
g35
tp2570
I-1
s(g87
g5
tp2571
I-1
s(g65
g29
tp2572
I-1
s(g44
g68
tp2573
I-1
s(g86
g50
tp2574
I-1
s(g31
g11
tp2575
I-1
s(g38
g77
tp2576
I-1
s(g1
g16
tp2577
I-1
s(g75
g19
tp2578
I-1
s(g5
g58
tp2579
I-1
s(g44
g124
tp2580
I-1
s(g29
g22
tp2581
I-1
s(g27
g5
tp2582
I-1
s(g21
g63
tp2583
I-1
s(g63
g29
tp2584
I-1
s(g48
g108
tp2585
I-1
s(g65
g10
tp2586
I-1
s(g1
g34
tp2587
I-1
s(g21
g32
tp2588
I-1
s(g68
g41
tp2589
I-1
s(g18
g27
tp2590
I-1
s(g58
g4
tp2591
I-1
s(g48
g70
tp2592
I-1
s(g75
g38
tp2593
I-1
s(g87
g227
tp2594
I-1
s(g65
g27
tp2595
I-1
s(g32
g25
tp2596
I-1
s(g40
g48
tp2597
I-1
s(g13
g115
tp2598
I-1
s(g13
g48
tp2599
I-1
s(g41
g44
tp2600
I-1
s(g77
g7
tp2601
I-1
s(g86
g61
tp2602
I-1
s(g46
g19
tp2603
I-1
s(g21
g38
tp2604
I-1
s(g1
g1
tp2605
I1
s(g86
g68
tp2606
I-1
s(g27
g8
tp2607
I-1
s(g58
g90
tp2608
I-1
s(g19
g61
tp2609
I-1
s(g46
g53
tp2610
I-1
s(g106
g104
tp2611
I-1
s(g65
g34
tp2612
I-1
s(g7
g5
tp2613
I-1
s(g115
g106
tp2614
I-1
s(g31
g21
tp2615
I-1
s(g14
g70
tp2616
I-1
s(g10
g44
tp2617
I-1
s(g227
g41
tp2618
I-1
s(g29
g14
tp2619
I-1
s(g27
g75
tp2620
I-1
s(g21
g104
tp2621
I-1
s(g61
g227
tp2622
I-1
s(g90
g46
tp2623
I-1
s(g63
g61
tp2624
I-1
s(g68
g8
tp2625
I-1
s(g120
g41
tp2626
I-1
s(g87
g21
tp2627
I-1
s(g73
g44
tp2628
I-1
s(g7
g227
tp2629
I-1
s(g4
g35
tp2630
I-1
s(g38
g7
tp2631
I-1
s(g48
g2
tp2632
I-1
s(g108
g16
tp2633
I-1
s(g41
g16
tp2634
I-1
s(g35
g8
tp2635
I-1
s(g16
g41
tp2636
I-1
s(g24
g58
tp2637
I-1
s(g50
g29
tp2638
I-1
s(g120
g96
tp2639
I-1
s(g21
g56
tp2640
I-1
s(g38
g8
tp2641
I-1
s(g68
g19
tp2642
I-1
s(g115
g40
tp2643
I-1
s(g16
g87
tp2644
I-1
s(g75
g106
tp2645
I-1
s(g73
g73
tp2646
I1
s(g14
g46
tp2647
I-1
s(g38
g68
tp2648
I-1
s(g115
g50
tp2649
I-1
s(g31
g227
tp2650
I-1
s(g1
g48
tp2651
I-1
s(g108
g61
tp2652
I-1
s(g120
g46
tp2653
I-1
s(g68
g46
tp2654
I-1
s(g86
g56
tp2655
I-1
s(g46
g111
tp2656
I-1
s(g1
g40
tp2657
I-1
s(g86
g53
tp2658
I-1
s(g34
g70
tp2659
I-1
s(g32
g7
tp2660
I-1
s(g8
g50
tp2661
I-1
s(g14
g19
tp2662
I-1
s(g35
g38
tp2663
I-1
s(g7
g38
tp2664
I-1
s(g65
g24
tp2665
I-1
s(g32
g61
tp2666
I-1
s(g8
g19
tp2667
I-1
s(g53
g22
tp2668
I-1
s(g104
g108
tp2669
I-1
s(g40
g61
tp2670
I-1
s(g10
g115
tp2671
I-1
s(g40
g53
tp2672
I-1
s(g48
g124
tp2673
I-1
s(g56
g19
tp2674
I-1
s(g50
g14
tp2675
I-1
s(g18
g21
tp2676
I-1
s(g4
g31
tp2677
I-1
s(g16
g73
tp2678
I-1
s(g68
g24
tp2679
I-1
s(g7
g96
tp2680
I-1
s(g29
g35
tp2681
I-1
s(g96
g2
tp2682
I-1
s(g106
g120
tp2683
I-1
s(g7
g10
tp2684
I-1
s(g35
g11
tp2685
I-1
s(g31
g35
tp2686
I-1
s(g2
g46
tp2687
I-1
s(g11
g61
tp2688
I-1
s(g8
g77
tp2689
I-1
s(g68
g68
tp2690
I1
s(g35
g53
tp2691
I-1
s(g18
g120
tp2692
I-1
s(g34
g96
tp2693
I-1
s(g90
g22
tp2694
I-1
s(g11
g13
tp2695
I-1
s(g35
g31
tp2696
I-1
s(g63
g32
tp2697
I-1
s(g96
g46
tp2698
I-1
s(g7
g11
tp2699
I-1
s(g4
g21
tp2700
I-1
s(g96
g50
tp2701
I-1
s(g22
g2
tp2702
I-1
s(g50
g27
tp2703
I-1
s(g90
g1
tp2704
I-1
s(g19
g75
tp2705
I-1
s(g86
g29
tp2706
I-1
s(g4
g56
tp2707
I-1
s(g19
g1
tp2708
I-1
s(g46
g115
tp2709
I-1
s(g104
g63
tp2710
I-1
s(g11
g25
tp2711
I-1
s(g5
g18
tp2712
I-1
s(g58
g115
tp2713
I-1
s(g38
g120
tp2714
I-1
s(g44
g44
tp2715
I1
s(g29
g1
tp2716
I-1
s(g1
g50
tp2717
I-1
s(g96
g7
tp2718
I-1
s(g40
g68
tp2719
I-1
s(g53
g120
tp2720
I-1
s(g111
g50
tp2721
I-1
s(g31
g1
tp2722
I-1
s(g56
g227
tp2723
I-1
s(g1
g96
tp2724
I-1
s(g108
g108
tp2725
I1
s(g120
g10
tp2726
I-1
s(g87
g56
tp2727
I-1
s(g5
g106
tp2728
I-1
s(g22
g41
tp2729
I-1
s(g65
g86
tp2730
I-1
s(g29
g16
tp2731
I-1
s(g8
g7
tp2732
I-1
s(g32
g73
tp2733
I-1
s(g13
g87
tp2734
I-1
s(g58
g86
tp2735
I-1
s(g63
g87
tp2736
I-1
s(g7
g73
tp2737
I-1
s(g120
g104
tp2738
I-1
s(g75
g11
tp2739
I-1
s(g32
g108
tp2740
I-1
s(g53
g25
tp2741
I-1
s(g111
g32
tp2742
I-1
s(g4
g11
tp2743
I-1
s(g96
g106
tp2744
I-1
s(g8
g18
tp2745
I-1
s(g75
g25
tp2746
I-1
s(g10
g35
tp2747
I-1
s(g22
g14
tp2748
I-1
s(g19
g10
tp2749
I-1
s(g4
g38
tp2750
I-1
s(g19
g35
tp2751
I-1
s(g16
g18
tp2752
I-1
s(g77
g44
tp2753
I-1
s(g70
g4
tp2754
I-1
s(g44
g115
tp2755
I-1
s(g41
g1
tp2756
I-1
s(g1
g18
tp2757
I-1
s(g7
g48
tp2758
I-1
s(g106
g50
tp2759
I-1
s(g2
g25
tp2760
I-1
s(g108
g124
tp2761
I-1
s(g106
g13
tp2762
I-1
s(g73
g56
tp2763
I-1
s(g104
g34
tp2764
I-1
s(g115
g63
tp2765
I-1
s(g31
g115
tp2766
I-1
s(g5
g75
tp2767
I-1
s(g24
g75
tp2768
I-1
s(g25
g4
tp2769
I-1
s(g27
g90
tp2770
I-1
s(g32
g31
tp2771
I-1
s(g63
g77
tp2772
I-1
s(g5
g1
tp2773
I-1
s(g13
g5
tp2774
I-1
s(g50
g11
tp2775
I-1
s(g68
g11
tp2776
I-1
s(g53
g19
tp2777
I-1
s(g1
g58
tp2778
I-1
s(g124
g5
tp2779
I-1
s(g65
g7
tp2780
I-1
s(g4
g86
tp2781
I-1
s(g5
g115
tp2782
I-1
s(g104
g70
tp2783
I-1
s(g7
g104
tp2784
I-1
s(g38
g38
tp2785
I1
s(g46
g77
tp2786
I-1
s(g25
g18
tp2787
I-1
s(g87
g96
tp2788
I-1
s(g18
g104
tp2789
I-1
s(g56
g56
tp2790
I1
s(g31
g4
tp2791
I-1
s(g44
g120
tp2792
I-1
s(g38
g32
tp2793
I-1
s(g115
g31
tp2794
I-1
s(g61
g7
tp2795
I-1
s(g86
g120
tp2796
I-1
s(g44
g70
tp2797
I-1
s(g106
g35
tp2798
I-1
s(g5
g70
tp2799
I-1
s(g2
g14
tp2800
I-1
s(g48
g104
tp2801
I-1
s(g111
g14
tp2802
I-1
s(g2
g50
tp2803
I-1
s(g63
g1
tp2804
I-1
s(g86
g11
tp2805
I-1
s(g31
g87
tp2806
I-1
s(g34
g25
tp2807
I-1
s(g5
g56
tp2808
I-1
s(g65
g73
tp2809
I-1
s(g86
g25
tp2810
I-1
s(g35
g61
tp2811
I-1
s(g22
g106
tp2812
I-1
s(g50
g111
tp2813
I-1
s(g14
g41
tp2814
I-1
s(g86
g27
tp2815
I-1
s(g32
g38
tp2816
I-1
s(g14
g4
tp2817
I-1
s(g38
g50
tp2818
I-1
s(g35
g7
tp2819
I-1
s(g48
g38
tp2820
I-1
s(g7
g7
tp2821
I1
s(g111
g120
tp2822
I-1
s(g11
g27
tp2823
I-1
s(g11
g24
tp2824
I-1
s(g40
g22
tp2825
I-1
s(g4
g104
tp2826
I-1
s(g10
g21
tp2827
I-1
s(g56
g4
tp2828
I-1
s(g87
g13
tp2829
I-1
s(g2
g11
tp2830
I-1
s(g4
g73
tp2831
I-1
s(g22
g4
tp2832
I-1
s(g77
g70
tp2833
I-1
s(g86
g111
tp2834
I-1
s(g70
g32
tp2835
I-1
s(g120
g120
tp2836
I1
s(g2
g10
tp2837
I-1
s(g31
g124
tp2838
I-1
s(g65
g44
tp2839
I-1
s(g68
g75
tp2840
I-1
s(g115
g48
tp2841
I-1
s(g7
g16
tp2842
I-1
s(g11
g58
tp2843
I-1
s(g106
g29
tp2844
I-1
s(g73
g22
tp2845
I-1
s(g18
g13
tp2846
I-1
s(g111
g63
tp2847
I-1
s(g7
g19
tp2848
I-1
s(g35
g13
tp2849
I-1
s(g61
g63
tp2850
I-1
s(g24
g16
tp2851
I-1
s(g120
g111
tp2852
I-1
s(g87
g73
tp2853
I-1
s(g73
g31
tp2854
I-1
s(g32
g13
tp2855
I-1
s(g22
g96
tp2856
I-1
s(g106
g19
tp2857
I-1
s(g35
g96
tp2858
I-1
s(g25
g56
tp2859
I-1
s(g10
g61
tp2860
I-1
s(g63
g106
tp2861
I-1
s(g90
g61
tp2862
I-1
s.