(dp0
(S'B'
p1
S'N'
p2
tp3
I0
s(S'S'
p4
S'W'
p5
tp6
I0
s(S'4'
p7
g7
tp8
I2
s(S'G'
p9
g9
tp10
I10
s(S'X'
p11
S'D'
p12
tp13
I0
s(S'3'
p14
g12
tp15
I-100000
s(S'E'
p16
S'0'
p17
tp18
I0
s(g12
S'5'
p19
tp20
I-100000
s(g16
S'M'
p21
tp22
I-10
s(S'R'
p23
S'O'
p24
tp25
I-10
s(S'+'
p26
g14
tp27
I-100
s(g14
S'U'
p28
tp29
I-100000
s(g1
g24
tp30
I-10
s(g7
g19
tp31
I1
s(g11
g1
tp32
I0
s(S'_'
p33
S'A'
p34
tp35
I-100000
s(g34
g2
tp36
I-10
s(g14
S'C'
p37
tp38
I-100000
s(S'2'
p39
S'P'
p40
tp41
I-100000
s(g11
g34
tp42
I0
s(g17
g40
tp43
I0
s(g24
g24
tp44
I5
s(S'I'
p45
g17
tp46
I0
s(S'J'
p47
g4
tp48
I0
s(g1
g17
tp49
I0
s(g47
g2
tp50
I0
s(g9
g16
tp51
I-10
s(S'6'
p52
g12
tp53
I-100000
s(g16
g39
tp54
I-100000
s(g16
g12
tp55
I-10
s(g5
g40
tp56
I2
s(S'H'
p57
g1
tp58
I0
s(g45
S'T'
p59
tp60
I-10
s(g16
g24
tp61
I4
s(g52
g19
tp62
I1
s(g45
g33
tp63
I-100000
s(g7
S'K'
p64
tp65
I-100000
s(g11
g21
tp66
I0
s(g17
S'L'
p67
tp68
I0
s(g1
S'1'
p69
tp70
I-100000
s(g37
S'Y'
p71
tp72
I-10
s(g9
g12
tp73
I0
s(g28
g69
tp74
I-100000
s(g59
g2
tp75
I0
s(g33
g2
tp76
I-100000
s(g39
g23
tp77
I-100000
s(g5
g5
tp78
I10
s(g39
g69
tp79
I1
s(g11
g5
tp80
I0
s(g26
g9
tp81
I-100
s(g11
g24
tp82
I0
s(g34
g14
tp83
I-100000
s(g5
g39
tp84
I-100000
s(g24
g21
tp85
I-10
s(g14
g23
tp86
I-100000
s(g1
g39
tp87
I-100000
s(g4
g4
tp88
I10
s(g52
g21
tp89
I-100000
s(g7
g17
tp90
I0
s(g11
g57
tp91
I0
s(g23
g33
tp92
I-100000
s(g64
g37
tp93
I6
s(g40
g14
tp94
I-100000
s(g71
g45
tp95
I4
s(g24
g67
tp96
I-10
s(g1
g14
tp97
I-100000
s(g47
g17
tp98
I0
s(g19
g57
tp99
I-100000
s(g34
g64
tp100
I-10
s(g7
g69
tp101
I1
s(g28
g14
tp102
I-100000
s(g34
g1
tp103
I-10
s(g17
g24
tp104
I0
s(g33
g67
tp105
I-100000
s(g39
g59
tp106
I-100000
s(g5
g28
tp107
I-6
s(g39
g14
tp108
I1
s(g19
g7
tp109
I1
s(g12
g4
tp110
I6
s(g28
g33
tp111
I-100000
s(g1
g7
tp112
I-100000
s(g12
g11
tp113
I0
s(g57
g40
tp114
I0
s(g17
g71
tp115
I0
s(g40
g24
tp116
I-10
s(g71
g64
tp117
I-10
s(g5
g59
tp118
I0
s(g4
g52
tp119
I-100000
s(g40
g12
tp120
I0
s(g26
g12
tp121
I-100
s(g23
g40
tp122
I0
s(g52
g69
tp123
I1
s(g59
g23
tp124
I0
s(g7
g5
tp125
I-100000
s(g45
g47
tp126
I-5
s(g47
g57
tp127
I0
s(g1
g19
tp128
I-100000
s(g37
g28
tp129
I-10
s(g19
g47
tp130
I-100000
s(g39
g34
tp131
I-100000
s(g33
g64
tp132
I-100000
s(g64
g19
tp133
I-100000
s(g17
g21
tp134
I0
s(g69
g28
tp135
I-100000
s(g2
g24
tp136
I-10
s(g39
g12
tp137
I-100000
s(g39
g19
tp138
I1
s(g19
g52
tp139
I1
s(g24
g26
tp140
I-100
s(g5
g52
tp141
I-100000
s(g14
g2
tp142
I-100000
s(g1
g52
tp143
I-100000
s(g4
g24
tp144
I-10
s(g52
g45
tp145
I-100000
s(g2
g26
tp146
I-100
s(g69
g14
tp147
I1
s(g11
g67
tp148
I0
s(g67
g14
tp149
I-100000
s(g2
g17
tp150
I0
s(g21
g19
tp151
I-100000
s(g28
g23
tp152
I-10
s(g14
g21
tp153
I-100000
s(g34
g24
tp154
I4
s(g59
g37
tp155
I6
s(g33
g45
tp156
I-100000
s(g59
g57
tp157
I0
s(g39
g11
tp158
I0
s(g7
g12
tp159
I-100000
s(g14
g7
tp160
I1
s(g24
g5
tp161
I-6
s(g34
g40
tp162
I-10
s(g47
g64
tp163
I0
s(g37
g23
tp164
I0
s(g57
g59
tp165
I0
s(g64
g39
tp166
I-100000
s(g16
g67
tp167
I-10
s(g7
g16
tp168
I-100000
s(g57
g47
tp169
I0
s(g4
g39
tp170
I-100000
s(g14
g14
tp171
I2
s(g33
g23
tp172
I-100000
s(g45
g9
tp173
I-10
s(g7
g4
tp174
I-100000
s(g47
g69
tp175
I-100000
s(g59
g34
tp176
I-10
s(g19
g71
tp177
I-100000
s(g69
g45
tp178
I-100000
s(g33
g52
tp179
I-100000
s(g34
g17
tp180
I0
s(g26
g24
tp181
I-100
s(g28
g4
tp182
I-10
s(g5
g47
tp183
I0
s(g24
g28
tp184
I4
s(g57
g39
tp185
I-100000
s(g14
g47
tp186
I-100000
s(g4
g64
tp187
I2
s(g52
g16
tp188
I-100000
s(g40
g39
tp189
I-100000
s(g11
g40
tp190
I0
s(g64
g64
tp191
I10
s(g40
g26
tp192
I-100
s(g16
g2
tp193
I-10
s(g2
g59
tp194
I0
s(g52
g52
tp195
I2
s(g37
g26
tp196
I-100
s(g33
g40
tp197
I-100000
s(g24
g59
tp198
I-10
s(g21
g69
tp199
I-100000
s(g34
g57
tp200
I-10
s(g14
g45
tp201
I-100000
s(g19
g40
tp202
I-100000
s(g34
g37
tp203
I-10
s(g71
g19
tp204
I-100000
s(g59
g19
tp205
I-100000
s(g17
g39
tp206
I0
s(g17
g9
tp207
I0
s(g33
g7
tp208
I-100000
s(g34
g28
tp209
I4
s(g14
g17
tp210
I0
s(g45
g19
tp211
I-100000
s(g26
g64
tp212
I-100
s(g52
g2
tp213
I-100000
s(g57
g4
tp214
I6
s(g5
g26
tp215
I-100
s(g33
g5
tp216
I-100000
s(g57
g11
tp217
I0
s(g40
g2
tp218
I0
s(g11
g69
tp219
I0
s(g45
g71
tp220
I4
s(g40
g9
tp221
I0
s(g71
g4
tp222
I-10
s(g7
g34
tp223
I-100000
s(g57
g2
tp224
I0
s(g26
g67
tp225
I-100
s(g23
g17
tp226
I0
s(g26
g59
tp227
I-100
s(g7
g33
tp228
I-100000
s(g21
g14
tp229
I-100000
s(g39
g37
tp230
I-100000
s(g19
g23
tp231
I-100000
s(g69
g23
tp232
I-100000
s(g33
g14
tp233
I-100000
s(g17
g17
tp234
I0
s(g64
g57
tp235
I0
s(g69
g21
tp236
I-100000
s(g2
g5
tp237
I0
s(g34
g7
tp238
I-100000
s(g40
g21
tp239
I0
s(g23
g69
tp240
I-100000
s(g4
g71
tp241
I-10
s(g7
g52
tp242
I1
s(g5
g2
tp243
I0
s(g12
g71
tp244
I-10
s(g57
g52
tp245
I-100000
s(g47
g34
tp246
I-6
s(g64
g71
tp247
I-10
s(g12
g2
tp248
I0
s(g52
g34
tp249
I-100000
s(g26
g11
tp250
I-5
s(g2
g14
tp251
I-100000
s(g11
g59
tp252
I0
s(g9
g23
tp253
I0
s(g52
g39
tp254
I1
s(g23
g39
tp255
I-100000
s(g24
g39
tp256
I-100000
s(g34
g67
tp257
I-10
s(g14
g16
tp258
I-100000
s(g37
g16
tp259
I-10
s(g34
g9
tp260
I-10
s(g71
g1
tp261
I-9
s(g59
g64
tp262
I0
s(g33
g69
tp263
I-100000
s(g24
g2
tp264
I-10
s(g7
g67
tp265
I-100000
s(g11
g28
tp266
I0
s(g23
g14
tp267
I-100000
s(g24
g69
tp268
I-100000
s(g40
g11
tp269
I0
s(g24
g33
tp270
I-100000
s(g52
g47
tp271
I-100000
s(g47
g37
tp272
I0
s(g57
g5
tp273
I0
s(g45
g26
tp274
I-100
s(g40
g28
tp275
I-10
s(g26
g52
tp276
I-100
s(g52
g59
tp277
I-100000
s(g11
g19
tp278
I0
s(g7
g21
tp279
I-100000
s(g19
g16
tp280
I-100000
s(g45
g12
tp281
I-10
s(g23
g7
tp282
I-100000
s(g21
g7
tp283
I-100000
s(g45
g24
tp284
I4
s(g24
g17
tp285
I0
s(g16
g4
tp286
I-10
s(g39
g9
tp287
I-100000
s(g69
g33
tp288
I-100000
s(g2
g34
tp289
I-10
s(g59
g45
tp290
I-10
s(g28
g34
tp291
I4
s(g69
g34
tp292
I-100000
s(g64
g5
tp293
I0
s(g23
g19
tp294
I-100000
s(g4
g28
tp295
I-10
s(g7
g39
tp296
I1
s(g5
g1
tp297
I6
s(g14
g1
tp298
I-100000
s(g28
g39
tp299
I-100000
s(g4
g37
tp300
I6
s(g11
g4
tp301
I0
s(g2
g1
tp302
I0
s(g17
g45
tp303
I0
s(g71
g71
tp304
I5
s(g19
g9
tp305
I-100000
s(g23
g52
tp306
I-100000
s(g33
g11
tp307
I0
s(g26
g4
tp308
I-100
s(g59
g59
tp309
I10
s(g59
g7
tp310
I-100000
s(g39
g45
tp311
I-100000
s(g14
g34
tp312
I-100000
s(g19
g11
tp313
I0
s(g67
g40
tp314
I0
s(g28
g37
tp315
I-10
s(g34
g23
tp316
I-10
s(g21
g23
tp317
I0
s(g7
g57
tp318
I-100000
s(g45
g39
tp319
I-100000
s(g52
g11
tp320
I0
s(g17
g16
tp321
I0
s(g71
g67
tp322
I-10
s(g16
g19
tp323
I-100000
s(g12
g37
tp324
I2
s(g40
g40
tp325
I10
s(g17
g2
tp326
I0
s(g12
g57
tp327
I2
s(g52
g40
tp328
I-100000
s(g45
g34
tp329
I4
s(g7
g45
tp330
I-100000
s(g67
g12
tp331
I0
s(g64
g59
tp332
I0
s(g21
g17
tp333
I0
s(g67
g33
tp334
I-100000
s(g67
g37
tp335
I0
s(g39
g64
tp336
I-100000
s(g69
g4
tp337
I-100000
s(g71
g11
tp338
I0
s(g69
g47
tp339
I-100000
s(g14
g11
tp340
I0
s(g69
g16
tp341
I-100000
s(g2
g33
tp342
I-100000
s(g64
g26
tp343
I-100
s(g52
g24
tp344
I-100000
s(g12
g34
tp345
I-10
s(g16
g71
tp346
I4
s(g64
g34
tp347
I-10
s(g40
g69
tp348
I-100000
s(g12
g52
tp349
I-100000
s(g52
g71
tp350
I-100000
s(g26
g19
tp351
I-100
s(g24
g14
tp352
I-100000
s(g26
g26
tp353
I0
s(g9
g47
tp354
I0
s(g33
g28
tp355
I-100000
s(g23
g11
tp356
I0
s(g23
g4
tp357
I0
s(g11
g37
tp358
I0
s(g39
g21
tp359
I-100000
s(g67
g23
tp360
I4
s(g34
g33
tp361
I-100000
s(g71
g47
tp362
I-6
s(g24
g37
tp363
I-10
s(g59
g4
tp364
I2
s(g14
g52
tp365
I1
s(g59
g11
tp366
I0
s(g21
g2
tp367
I1
s(g9
g14
tp368
I-100000
s(g7
g59
tp369
I-100000
s(g4
g11
tp370
I0
s(g17
g59
tp371
I0
s(g16
g40
tp372
I-10
s(g52
g1
tp373
I-100000
s(g4
g9
tp374
I6
s(g57
g33
tp375
I-100000
s(g45
g4
tp376
I-10
s(g37
g1
tp377
I0
s(g24
g1
tp378
I-10
s(g57
g12
tp379
I2
s(g26
g1
tp380
I-100
s(g14
g19
tp381
I1
s(g52
g14
tp382
I1
s(g7
g28
tp383
I-100000
s(g19
g21
tp384
I-100000
s(g45
g67
tp385
I-10
s(g33
g1
tp386
I-100000
s(g39
g24
tp387
I-100000
s(g64
g14
tp388
I-100000
s(g64
g2
tp389
I0
s(g69
g5
tp390
I-100000
s(g2
g67
tp391
I0
s(g2
g45
tp392
I-10
s(g24
g34
tp393
I4
s(g69
g2
tp394
I-100000
s(g28
g45
tp395
I4
s(g47
g14
tp396
I-100000
s(g9
g69
tp397
I-100000
s(g64
g33
tp398
I-100000
s(g4
g21
tp399
I0
s(g52
g64
tp400
I-100000
s(g2
g19
tp401
I-100000
s(g52
g28
tp402
I-100000
s(g2
g47
tp403
I0
s(g34
g12
tp404
I-10
s(g16
g47
tp405
I-6
s(g19
g12
tp406
I-100000
s(g9
g17
tp407
I0
s(g71
g28
tp408
I4
s(g9
g2
tp409
I0
s(g19
g24
tp410
I-100000
s(g17
g47
tp411
I0
s(g69
g69
tp412
I2
s(g2
g52
tp413
I-100000
s(g67
g71
tp414
I-10
s(g16
g26
tp415
I-100
s(g34
g11
tp416
I0
s(g1
g26
tp417
I-100
s(g67
g2
tp418
I0
s(g34
g4
tp419
I-10
s(g7
g1
tp420
I-100000
s(g28
g64
tp421
I-10
s(g23
g57
tp422
I0
s(g14
g39
tp423
I1
s(g12
g59
tp424
I6
s(g21
g47
tp425
I0
s(g7
g40
tp426
I-100000
s(g4
g59
tp427
I2
s(g40
g4
tp428
I0
s(g12
g64
tp429
I0
s(g40
g57
tp430
I0
s(g64
g17
tp431
I0
s(g57
g37
tp432
I2
s(g12
g17
tp433
I0
s(g57
g57
tp434
I10
s(g14
g69
tp435
I1
s(g45
g45
tp436
I5
s(g33
g33
tp437
I10
s(g23
g59
tp438
I0
s(g69
g40
tp439
I-100000
s(g17
g4
tp440
I0
s(g39
g4
tp441
I-100000
s(g69
g64
tp442
I-100000
s(g28
g1
tp443
I-10
s(g16
g23
tp444
I-10
s(g39
g16
tp445
I-100000
s(g69
g1
tp446
I-100000
s(g26
g21
tp447
I-100
s(g47
g1
tp448
I0
s(g9
g19
tp449
I-100000
s(g34
g34
tp450
I5
s(g57
g17
tp451
I0
s(g19
g4
tp452
I-100000
s(g16
g7
tp453
I-100000
s(g4
g45
tp454
I-10
s(g52
g9
tp455
I-100000
s(g12
g45
tp456
I-10
s(g16
g34
tp457
I4
s(g64
g45
tp458
I-10
s(g11
g33
tp459
I0
s(g9
g7
tp460
I-100000
s(g9
g1
tp461
I0
s(g59
g12
tp462
I6
s(g69
g19
tp463
I1
s(g67
g4
tp464
I0
s(g67
g28
tp465
I-10
s(g59
g39
tp466
I-100000
s(g39
g28
tp467
I-100000
s(g67
g47
tp468
I0
s(g34
g5
tp469
I-6
s(g71
g23
tp470
I-10
s(g7
g2
tp471
I-100000
s(g47
g33
tp472
I-100000
s(g9
g26
tp473
I-100
s(g4
g40
tp474
I0
s(g16
g52
tp475
I-100000
s(g16
g11
tp476
I0
s(g71
g52
tp477
I-100000
s(g59
g40
tp478
I0
s(g45
g40
tp479
I-10
s(g16
g37
tp480
I-10
s(g37
g24
tp481
I-10
s(g57
g9
tp482
I2
s(g40
g16
tp483
I-10
s(g24
g47
tp484
I-6
s(g57
g67
tp485
I0
s(g26
g47
tp486
I-100
s(g19
g26
tp487
I-100
s(g28
g19
tp488
I-100000
s(g11
g64
tp489
I0
s(g59
g1
tp490
I0
s(g33
g47
tp491
I-100000
s(g28
g59
tp492
I-10
s(g26
g71
tp493
I-100
s(g69
g59
tp494
I-100000
s(g21
g33
tp495
I-100000
s(g39
g5
tp496
I-100000
s(g69
g24
tp497
I-100000
s(g71
g59
tp498
I-10
s(g24
g45
tp499
I4
s(g59
g71
tp500
I-10
s(g19
g69
tp501
I1
s(g47
g26
tp502
I-100
s(g57
g7
tp503
I-100000
s(g37
g7
tp504
I-100000
s(g64
g9
tp505
I6
s(g4
g16
tp506
I-10
s(g52
g37
tp507
I-100000
s(g71
g16
tp508
I4
s(g5
g23
tp509
I0
s(g40
g7
tp510
I-100000
s(g4
g14
tp511
I-100000
s(g2
g23
tp512
I0
s(g24
g57
tp513
I-10
s(g47
g23
tp514
I0
s(g19
g67
tp515
I-100000
s(g19
g5
tp516
I-100000
s(g37
g14
tp517
I-100000
s(g17
g64
tp518
I0
s(g33
g57
tp519
I-100000
s(g59
g52
tp520
I-100000
s(g21
g71
tp521
I-10
s(g39
g71
tp522
I-100000
s(g4
g2
tp523
I0
s(g37
g67
tp524
I0
s(g28
g57
tp525
I-10
s(g7
g47
tp526
I-100000
s(g12
g5
tp527
I0
s(g19
g14
tp528
I1
s(g21
g1
tp529
I0
s(g7
g11
tp530
I0
s(g4
g67
tp531
I0
s(g40
g23
tp532
I0
s(g57
g28
tp533
I-10
s(g40
g64
tp534
I0
s(g71
g9
tp535
I-10
s(g11
g39
tp536
I0
s(g12
g14
tp537
I-100000
s(g5
g11
tp538
I0
s(g17
g19
tp539
I0
s(g37
g64
tp540
I6
s(g57
g64
tp541
I0
s(g5
g14
tp542
I-100000
s(g23
g5
tp543
I0
s(g47
g59
tp544
I0
s(g19
g2
tp545
I-100000
s(g71
g26
tp546
I-100
s(g7
g71
tp547
I-100000
s(g33
g9
tp548
I-100000
s(g64
g12
tp549
I0
s(g26
g40
tp550
I-100
s(g2
g37
tp551
I0
s(g69
g57
tp552
I-100000
s(g69
g37
tp553
I-100000
s(g28
g47
tp554
I-6
s(g12
g28
tp555
I-10
s(g33
g26
tp556
I-100
s(g47
g28
tp557
I-6
s(g64
g28
tp558
I-10
s(g57
g14
tp559
I-100000
s(g52
g26
tp560
I-100
s(g37
g17
tp561
I0
s(g4
g34
tp562
I-10
s(g52
g33
tp563
I-100000
s(g12
g69
tp564
I-100000
s(g16
g45
tp565
I4
s(g11
g16
tp566
I0
s(g5
g69
tp567
I-100000
s(g59
g9
tp568
I0
s(g33
g16
tp569
I-100000
s(g69
g39
tp570
I1
s(g1
g40
tp571
I6
s(g59
g67
tp572
I0
s(g17
g11
tp573
I0
s(g26
g2
tp574
I-100
s(g67
g21
tp575
I0
s(g21
g28
tp576
I-10
s(g34
g59
tp577
I-10
s(g37
g57
tp578
I2
s(g47
g52
tp579
I-100000
s(g5
g17
tp580
I0
s(g24
g4
tp581
I-10
s(g45
g7
tp582
I-100000
s(g47
g5
tp583
I0
s(g40
g71
tp584
I-10
s(g4
g57
tp585
I6
s(g64
g52
tp586
I-100000
s(g57
g71
tp587
I-10
s(g14
g26
tp588
I-100
s(g11
g52
tp589
I0
s(g45
g11
tp590
I0
s(g52
g23
tp591
I-100000
s(g37
g9
tp592
I2
s(g57
g24
tp593
I-10
s(g45
g37
tp594
I-10
s(g24
g23
tp595
I-10
s(g26
g39
tp596
I-100
s(g64
g23
tp597
I0
s(g11
g71
tp598
I0
s(g59
g16
tp599
I-10
s(g59
g26
tp600
I-100
s(g1
g23
tp601
I0
s(g59
g47
tp602
I0
s(g33
g39
tp603
I-100000
s(g59
g17
tp604
I0
s(g69
g67
tp605
I-100000
s(g21
g5
tp606
I0
s(g39
g33
tp607
I-100000
s(g26
g37
tp608
I-100
s(g69
g9
tp609
I-100000
s(g2
g71
tp610
I-10
s(g28
g71
tp611
I4
s(g28
g26
tp612
I-100
s(g1
g4
tp613
I0
s(g64
g24
tp614
I-10
s(g16
g1
tp615
I-10
s(g2
g57
tp616
I0
s(g14
g33
tp617
I-100000
s(g4
g26
tp618
I-100
s(g5
g19
tp619
I-100000
s(g24
g40
tp620
I-10
s(g47
g47
tp621
I10
s(g28
g7
tp622
I-100000
s(g71
g12
tp623
I-10
s(g2
g7
tp624
I-100000
s(g19
g33
tp625
I-100000
s(g69
g52
tp626
I1
s(g1
g59
tp627
I0
s(g17
g37
tp628
I0
s(g33
g17
tp629
I0
s(g26
g33
tp630
I-100
s(g71
g17
tp631
I0
s(g9
g71
tp632
I-10
s(g67
g45
tp633
I-10
s(g23
g34
tp634
I-10
s(g37
g12
tp635
I2
s(g45
g69
tp636
I-100000
s(g28
g40
tp637
I-10
s(g5
g7
tp638
I-100000
s(g7
g23
tp639
I-100000
s(g12
g33
tp640
I-100000
s(g67
g5
tp641
I0
s(g17
g23
tp642
I0
s(g12
g12
tp643
I10
s(g17
g7
tp644
I0
s(g67
g64
tp645
I0
s(g4
g12
tp646
I6
s(g40
g47
tp647
I0
s(g1
g28
tp648
I-10
s(g45
g28
tp649
I4
s(g40
g37
tp650
I0
s(g71
g24
tp651
I4
s(g9
g11
tp652
I0
s(g23
g1
tp653
I0
s(g37
g37
tp654
I10
s(g5
g64
tp655
I0
s(g45
g2
tp656
I-10
s(g47
g67
tp657
I0
s(g28
g52
tp658
I-100000
s(g67
g52
tp659
I-100000
s(g71
g14
tp660
I-100000
s(g33
g24
tp661
I-100000
s(g64
g69
tp662
I-100000
s(g64
g67
tp663
I0
s(g39
g17
tp664
I0
s(g28
g28
tp665
I5
s(g2
g64
tp666
I0
s(g9
g33
tp667
I-100000
s(g67
g9
tp668
I0
s(g21
g4
tp669
I0
s(g23
g37
tp670
I0
s(g19
g39
tp671
I1
s(g16
g28
tp672
I4
s(g47
g21
tp673
I0
s(g23
g64
tp674
I0
s(g12
g1
tp675
I0
s(g26
g45
tp676
I-100
s(g1
g5
tp677
I6
s(g52
g5
tp678
I-100000
s(g23
g12
tp679
I0
s(g47
g45
tp680
I-5
s(g7
g26
tp681
I-100
s(g5
g45
tp682
I-6
s(g26
g69
tp683
I-100
s(g67
g7
tp684
I-100000
s(g59
g24
tp685
I-10
s(g33
g21
tp686
I-100000
s(g1
g11
tp687
I0
s(g39
g39
tp688
I2
s(g11
g9
tp689
I0
s(g67
g16
tp690
I-10
s(g21
g21
tp691
I10
s(g23
g16
tp692
I-10
s(g34
g71
tp693
I4
s(g5
g57
tp694
I0
s(g11
g47
tp695
I0
s(g4
g23
tp696
I0
s(g16
g5
tp697
I-6
s(g47
g24
tp698
I-6
s(g47
g16
tp699
I-6
s(g11
g45
tp700
I0
s(g17
g57
tp701
I0
s(g1
g71
tp702
I-9
s(g57
g34
tp703
I-10
s(g2
g12
tp704
I0
s(g16
g57
tp705
I-10
s(g71
g7
tp706
I-100000
s(g37
g33
tp707
I-100000
s(g45
g64
tp708
I-10
s(g5
g24
tp709
I-6
s(g34
g26
tp710
I-100
s(g67
g39
tp711
I-100000
s(g2
g16
tp712
I-10
s(g59
g21
tp713
I0
s(g28
g16
tp714
I4
s(g59
g14
tp715
I-100000
s(g39
g7
tp716
I1
s(g21
g59
tp717
I0
s(g9
g4
tp718
I6
s(g69
g12
tp719
I-100000
s(g21
g24
tp720
I-10
s(g23
g9
tp721
I0
s(g17
g12
tp722
I0
s(g71
g21
tp723
I-10
s(g24
g71
tp724
I4
s(g11
g11
tp725
I0
s(g37
g52
tp726
I-100000
s(g40
g52
tp727
I-100000
s(g4
g19
tp728
I-100000
s(g52
g4
tp729
I-100000
s(g2
g40
tp730
I0
s(g14
g5
tp731
I-100000
s(g33
g59
tp732
I-100000
s(g5
g21
tp733
I0
s(g24
g11
tp734
I0
s(g37
g19
tp735
I-100000
s(g67
g11
tp736
I0
s(g67
g17
tp737
I0
s(g28
g9
tp738
I-10
s(g59
g69
tp739
I-100000
s(g17
g52
tp740
I0
s(g37
g2
tp741
I0
s(g39
g52
tp742
I1
s(g71
g40
tp743
I-10
s(g67
g1
tp744
I0
s(g67
g34
tp745
I-10
s(g21
g45
tp746
I-10
s(g23
g45
tp747
I-10
s(g28
g11
tp748
I0
s(g5
g67
tp749
I0
s(g12
g9
tp750
I0
s(g23
g67
tp751
I4
s(g12
g67
tp752
I0
s(g45
g23
tp753
I-10
s(g40
g1
tp754
I6
s(g37
g21
tp755
I0
s(g57
g16
tp756
I-10
s(g71
g5
tp757
I-5
s(g9
g40
tp758
I0
s(g33
g4
tp759
I-100000
s(g23
g47
tp760
I0
s(g26
g57
tp761
I-100
s(g5
g37
tp762
I0
s(g47
g12
tp763
I0
s(g24
g52
tp764
I-100000
s(g26
g28
tp765
I-100
s(g19
g59
tp766
I-100000
s(g34
g69
tp767
I-100000
s(g21
g40
tp768
I0
s(g2
g4
tp769
I0
s(g9
g5
tp770
I0
s(g21
g64
tp771
I0
s(g14
g59
tp772
I-100000
s(g12
g16
tp773
I-10
s(g71
g69
tp774
I-100000
s(g37
g39
tp775
I-100000
s(g64
g16
tp776
I-10
s(g12
g47
tp777
I0
s(g39
g67
tp778
I-100000
s(g1
g33
tp779
I-100000
s(g4
g69
tp780
I-100000
s(g14
g4
tp781
I-100000
s(g28
g17
tp782
I0
s(g21
g52
tp783
I-100000
s(g34
g45
tp784
I4
s(g7
g14
tp785
I1
s(g5
g34
tp786
I-6
s(g69
g17
tp787
I0
s(g37
g69
tp788
I-100000
s(g69
g26
tp789
I-100
s(g59
g5
tp790
I0
s(g33
g19
tp791
I-100000
s(g37
g47
tp792
I0
s(g11
g23
tp793
I0
s(g9
g28
tp794
I-10
s(g21
g16
tp795
I-10
s(g23
g21
tp796
I0
s(g37
g11
tp797
I0
s(g16
g59
tp798
I-10
s(g24
g19
tp799
I-100000
s(g57
g23
tp800
I0
s(g4
g47
tp801
I0
s(g16
g33
tp802
I-100000
s(g47
g9
tp803
I0
s(g11
g26
tp804
I-5
s(g40
g45
tp805
I-10
s(g11
g17
tp806
I0
s(g1
g34
tp807
I-10
s(g37
g45
tp808
I-10
s(g57
g45
tp809
I-10
s(g9
g59
tp810
I0
s(g19
g34
tp811
I-100000
s(g45
g57
tp812
I-10
s(g23
g2
tp813
I0
s(g37
g5
tp814
I0
s(g39
g1
tp815
I-100000
s(g24
g7
tp816
I-100000
s(g5
g9
tp817
I0
s(g67
g19
tp818
I-100000
s(g26
g5
tp819
I-100
s(g64
g1
tp820
I0
s(g23
g26
tp821
I-100
s(g71
g57
tp822
I-10
s(g59
g28
tp823
I-10
s(g28
g21
tp824
I-10
s(g1
g1
tp825
I10
s(g34
g19
tp826
I-100000
s(g21
g67
tp827
I0
s(g19
g17
tp828
I0
s(g9
g64
tp829
I6
s(g21
g9
tp830
I0
s(g14
g40
tp831
I-100000
s(g64
g4
tp832
I2
s(g57
g69
tp833
I-100000
s(g11
g2
tp834
I0
s(g2
g2
tp835
I10
s(g1
g37
tp836
I0
s(g2
g11
tp837
I0
s(g19
g37
tp838
I-100000
s(g14
g24
tp839
I-100000
s(g17
g33
tp840
I0
s(g21
g39
tp841
I-100000
s(g34
g21
tp842
I-10
s(g5
g16
tp843
I-6
s(g69
g7
tp844
I1
s(g28
g12
tp845
I-10
s(g28
g24
tp846
I4
s(g1
g12
tp847
I0
s(g67
g24
tp848
I-10
s(g9
g45
tp849
I-10
s(g45
g52
tp850
I-100000
s(g21
g34
tp851
I-10
s(g37
g59
tp852
I6
s(g40
g33
tp853
I-100000
s(g5
g12
tp854
I0
s(g16
g69
tp855
I-100000
s(g12
g24
tp856
I-10
s(g40
g59
tp857
I0
s(g64
g7
tp858
I-100000
s(g17
g1
tp859
I0
s(g12
g7
tp860
I-100000
s(g7
g9
tp861
I-100000
s(g11
g7
tp862
I0
s(g4
g7
tp863
I-100000
s(g47
g11
tp864
I0
s(g1
g16
tp865
I-10
s(g47
g39
tp866
I-100000
s(g57
g21
tp867
I0
s(g45
g16
tp868
I4
s(g9
g39
tp869
I-100000
s(g71
g33
tp870
I-100000
s(g9
g57
tp871
I2
s(g12
g26
tp872
I-100
s(g23
g23
tp873
I10
s(g64
g40
tp874
I0
s(g37
g4
tp875
I6
s(g26
g23
tp876
I-100
s(g67
g69
tp877
I-100000
s(g47
g71
tp878
I-6
s(g26
g34
tp879
I-100
s(g4
g33
tp880
I-100000
s(g21
g57
tp881
I0
s(g9
g24
tp882
I-10
s(g21
g37
tp883
I0
s(g14
g67
tp884
I-100000
s(g12
g23
tp885
I0
s(g57
g19
tp886
I-100000
s(g16
g14
tp887
I-100000
s(g12
g21
tp888
I0
s(g16
g16
tp889
I5
s(g64
g21
tp890
I0
s(g40
g19
tp891
I-100000
s(g12
g39
tp892
I-100000
s(g57
g26
tp893
I-100
s(g52
g7
tp894
I1
s(g1
g9
tp895
I0
s(g47
g7
tp896
I-100000
s(g33
g71
tp897
I-100000
s(g14
g64
tp898
I-100000
s(g39
g57
tp899
I-100000
s(g5
g71
tp900
I-5
s(g71
g2
tp901
I-10
s(g24
g9
tp902
I-10
s(g59
g33
tp903
I-100000
s(g1
g57
tp904
I0
s(g47
g19
tp905
I-100000
s(g45
g14
tp906
I-100000
s(g9
g21
tp907
I0
s(g52
g67
tp908
I-100000
s(g23
g28
tp909
I-10
s(g37
g40
tp910
I0
s(g71
g39
tp911
I-100000
s(g4
g1
tp912
I0
s(g16
g9
tp913
I-10
s(g11
g14
tp914
I0
s(g45
g5
tp915
I-6
s(g40
g34
tp916
I-10
s(g7
g37
tp917
I-100000
s(g26
g7
tp918
I-100
s(g4
g17
tp919
I0
s(g1
g45
tp920
I-10
s(g37
g34
tp921
I-10
s(g9
g52
tp922
I-100000
s(g9
g67
tp923
I0
s(g19
g45
tp924
I-100000
s(g69
g71
tp925
I-100000
s(g39
g47
tp926
I-100000
s(g5
g33
tp927
I-100000
s(g19
g28
tp928
I-100000
s(g64
g47
tp929
I0
s(g2
g28
tp930
I-10
s(g24
g16
tp931
I4
s(g34
g39
tp932
I-100000
s(g19
g19
tp933
I2
s(g1
g47
tp934
I0
s(g16
g64
tp935
I-10
s(g21
g12
tp936
I0
s(g69
g11
tp937
I0
s(g9
g37
tp938
I2
s(g17
g28
tp939
I0
s(g14
g57
tp940
I-100000
s(g21
g26
tp941
I-100
s(g21
g11
tp942
I0
s(g71
g34
tp943
I4
s(g2
g69
tp944
I-100000
s(g40
g17
tp945
I0
s(g17
g14
tp946
I0
s(g24
g12
tp947
I-10
s(g52
g17
tp948
I0
s(g14
g71
tp949
I-100000
s(g1
g64
tp950
I0
s(g67
g59
tp951
I0
s(g19
g64
tp952
I-100000
s(g34
g47
tp953
I-6
s(g14
g9
tp954
I-100000
s(g17
g5
tp955
I0
s(g33
g12
tp956
I-100000
s(g34
g16
tp957
I4
s(g2
g39
tp958
I-100000
s(g39
g26
tp959
I-100
s(g67
g26
tp960
I-100
s(g17
g34
tp961
I0
s(g24
g64
tp962
I-10
s(g28
g67
tp963
I-10
s(g2
g21
tp964
I1
s(g28
g5
tp965
I-6
s(g1
g67
tp966
I0
s(g12
g40
tp967
I0
s(g9
g34
tp968
I-10
s(g52
g57
tp969
I-100000
s(g23
g71
tp970
I-10
s(g40
g5
tp971
I2
s(g71
g37
tp972
I-10
s(g67
g57
tp973
I0
s(g40
g67
tp974
I0
s(g17
g69
tp975
I0
s(g26
g16
tp976
I-100
s(g7
g24
tp977
I-100000
s(g45
g1
tp978
I-10
s(g47
g40
tp979
I0
s(g1
g21
tp980
I0
s(g19
g1
tp981
I-100000
s(g45
g21
tp982
I-10
s(g33
g37
tp983
I-100000
s(g64
g11
tp984
I0
s(g39
g2
tp985
I-100000
s(g2
g9
tp986
I0
s(g5
g4
tp987
I0
s(g67
g67
tp988
I10
s(g28
g2
tp989
I-10
s(g34
g52
tp990
I-100000
s.